ARM GAS  C:\Users\ariky\AppData\Local\Temp\ccqJuICG.s 			page 1


   1              		.syntax unified
   2              		.cpu cortex-m3
   3              		.fpu softvfp
   4              		.eabi_attribute 20, 1
   5              		.eabi_attribute 21, 1
   6              		.eabi_attribute 23, 3
   7              		.eabi_attribute 24, 1
   8              		.eabi_attribute 25, 1
   9              		.eabi_attribute 26, 1
  10              		.eabi_attribute 30, 1
  11              		.eabi_attribute 34, 1
  12              		.eabi_attribute 18, 4
  13              		.thumb
  14              		.syntax unified
  15              		.file	"cyfitter_cfg.c"
  16              		.text
  17              	.Ltext0:
  18              		.cfi_sections	.debug_frame
  19              		.section	.text.CyClockStartupError,"ax",%progbits
  20              		.align	2
  21              		.thumb
  22              		.thumb_func
  23              		.type	CyClockStartupError, %function
  24              	CyClockStartupError:
  25              	.LFB3:
  26              		.file 1 "Generated_Source\\PSoC5\\cyfitter_cfg.c"
   1:Generated_Source\PSoC5/cyfitter_cfg.c **** 
   2:Generated_Source\PSoC5/cyfitter_cfg.c **** /*******************************************************************************
   3:Generated_Source\PSoC5/cyfitter_cfg.c **** * File Name: cyfitter_cfg.c
   4:Generated_Source\PSoC5/cyfitter_cfg.c **** * 
   5:Generated_Source\PSoC5/cyfitter_cfg.c **** * PSoC Creator  4.2
   6:Generated_Source\PSoC5/cyfitter_cfg.c **** *
   7:Generated_Source\PSoC5/cyfitter_cfg.c **** * Description:
   8:Generated_Source\PSoC5/cyfitter_cfg.c **** * This file contains device initialization code.
   9:Generated_Source\PSoC5/cyfitter_cfg.c **** * Except for the user defined sections in CyClockStartupError(), this file should not be modified.
  10:Generated_Source\PSoC5/cyfitter_cfg.c **** * This file is automatically generated by PSoC Creator.
  11:Generated_Source\PSoC5/cyfitter_cfg.c **** *
  12:Generated_Source\PSoC5/cyfitter_cfg.c **** ********************************************************************************
  13:Generated_Source\PSoC5/cyfitter_cfg.c **** * Copyright (c) 2007-2018 Cypress Semiconductor.  All rights reserved.
  14:Generated_Source\PSoC5/cyfitter_cfg.c **** * You may use this file only in accordance with the license, terms, conditions, 
  15:Generated_Source\PSoC5/cyfitter_cfg.c **** * disclaimers, and limitations in the end user license agreement accompanying 
  16:Generated_Source\PSoC5/cyfitter_cfg.c **** * the software package with which this file was provided.
  17:Generated_Source\PSoC5/cyfitter_cfg.c **** ********************************************************************************/
  18:Generated_Source\PSoC5/cyfitter_cfg.c **** 
  19:Generated_Source\PSoC5/cyfitter_cfg.c **** #include <string.h>
  20:Generated_Source\PSoC5/cyfitter_cfg.c **** #include "cytypes.h"
  21:Generated_Source\PSoC5/cyfitter_cfg.c **** #include "cydevice_trm.h"
  22:Generated_Source\PSoC5/cyfitter_cfg.c **** #include "cyfitter.h"
  23:Generated_Source\PSoC5/cyfitter_cfg.c **** #include "CyLib.h"
  24:Generated_Source\PSoC5/cyfitter_cfg.c **** #include "cyfitter_cfg.h"
  25:Generated_Source\PSoC5/cyfitter_cfg.c **** #include "cyapicallbacks.h"
  26:Generated_Source\PSoC5/cyfitter_cfg.c **** 
  27:Generated_Source\PSoC5/cyfitter_cfg.c **** #define CY_NEED_CYCLOCKSTARTUPERROR 1
  28:Generated_Source\PSoC5/cyfitter_cfg.c **** 
  29:Generated_Source\PSoC5/cyfitter_cfg.c **** 
  30:Generated_Source\PSoC5/cyfitter_cfg.c **** #if defined(__GNUC__) || defined(__ARMCC_VERSION)
  31:Generated_Source\PSoC5/cyfitter_cfg.c ****     #define CYPACKED 
ARM GAS  C:\Users\ariky\AppData\Local\Temp\ccqJuICG.s 			page 2


  32:Generated_Source\PSoC5/cyfitter_cfg.c ****     #define CYPACKED_ATTR __attribute__ ((packed))
  33:Generated_Source\PSoC5/cyfitter_cfg.c ****     #define CYALIGNED __attribute__ ((aligned))
  34:Generated_Source\PSoC5/cyfitter_cfg.c ****     #define CY_CFG_UNUSED __attribute__ ((unused))
  35:Generated_Source\PSoC5/cyfitter_cfg.c ****     #ifndef CY_CFG_SECTION
  36:Generated_Source\PSoC5/cyfitter_cfg.c ****         #define CY_CFG_SECTION __attribute__ ((section(".psocinit")))
  37:Generated_Source\PSoC5/cyfitter_cfg.c ****     #endif
  38:Generated_Source\PSoC5/cyfitter_cfg.c ****     
  39:Generated_Source\PSoC5/cyfitter_cfg.c ****     #if defined(__ARMCC_VERSION)
  40:Generated_Source\PSoC5/cyfitter_cfg.c ****         #define CY_CFG_MEMORY_BARRIER() __memory_changed()
  41:Generated_Source\PSoC5/cyfitter_cfg.c ****     #else
  42:Generated_Source\PSoC5/cyfitter_cfg.c ****         #define CY_CFG_MEMORY_BARRIER() __sync_synchronize()
  43:Generated_Source\PSoC5/cyfitter_cfg.c ****     #endif
  44:Generated_Source\PSoC5/cyfitter_cfg.c ****     
  45:Generated_Source\PSoC5/cyfitter_cfg.c **** #elif defined(__ICCARM__)
  46:Generated_Source\PSoC5/cyfitter_cfg.c ****     #include <intrinsics.h>
  47:Generated_Source\PSoC5/cyfitter_cfg.c **** 
  48:Generated_Source\PSoC5/cyfitter_cfg.c ****     #define CYPACKED __packed
  49:Generated_Source\PSoC5/cyfitter_cfg.c ****     #define CYPACKED_ATTR 
  50:Generated_Source\PSoC5/cyfitter_cfg.c ****     #define CYALIGNED _Pragma("data_alignment=4")
  51:Generated_Source\PSoC5/cyfitter_cfg.c ****     #define CY_CFG_UNUSED _Pragma("diag_suppress=Pe177")
  52:Generated_Source\PSoC5/cyfitter_cfg.c ****     #define CY_CFG_SECTION _Pragma("location=\".psocinit\"")
  53:Generated_Source\PSoC5/cyfitter_cfg.c ****     
  54:Generated_Source\PSoC5/cyfitter_cfg.c ****     #define CY_CFG_MEMORY_BARRIER() __DMB()
  55:Generated_Source\PSoC5/cyfitter_cfg.c ****     
  56:Generated_Source\PSoC5/cyfitter_cfg.c **** #else
  57:Generated_Source\PSoC5/cyfitter_cfg.c ****     #error Unsupported toolchain
  58:Generated_Source\PSoC5/cyfitter_cfg.c **** #endif
  59:Generated_Source\PSoC5/cyfitter_cfg.c **** 
  60:Generated_Source\PSoC5/cyfitter_cfg.c **** #ifndef CYCODE
  61:Generated_Source\PSoC5/cyfitter_cfg.c ****     #define CYCODE
  62:Generated_Source\PSoC5/cyfitter_cfg.c **** #endif
  63:Generated_Source\PSoC5/cyfitter_cfg.c **** #ifndef CYDATA
  64:Generated_Source\PSoC5/cyfitter_cfg.c ****     #define CYDATA
  65:Generated_Source\PSoC5/cyfitter_cfg.c **** #endif
  66:Generated_Source\PSoC5/cyfitter_cfg.c **** #ifndef CYFAR
  67:Generated_Source\PSoC5/cyfitter_cfg.c ****     #define CYFAR
  68:Generated_Source\PSoC5/cyfitter_cfg.c **** #endif
  69:Generated_Source\PSoC5/cyfitter_cfg.c **** #ifndef CYXDATA
  70:Generated_Source\PSoC5/cyfitter_cfg.c ****     #define CYXDATA
  71:Generated_Source\PSoC5/cyfitter_cfg.c **** #endif
  72:Generated_Source\PSoC5/cyfitter_cfg.c **** 
  73:Generated_Source\PSoC5/cyfitter_cfg.c **** 
  74:Generated_Source\PSoC5/cyfitter_cfg.c **** CY_CFG_UNUSED
  75:Generated_Source\PSoC5/cyfitter_cfg.c **** static void CYMEMZERO(void *s, size_t n);
  76:Generated_Source\PSoC5/cyfitter_cfg.c **** CY_CFG_UNUSED
  77:Generated_Source\PSoC5/cyfitter_cfg.c **** static void CYMEMZERO(void *s, size_t n)
  78:Generated_Source\PSoC5/cyfitter_cfg.c **** {
  79:Generated_Source\PSoC5/cyfitter_cfg.c **** 	(void)memset(s, 0, n);
  80:Generated_Source\PSoC5/cyfitter_cfg.c **** }
  81:Generated_Source\PSoC5/cyfitter_cfg.c **** CY_CFG_UNUSED
  82:Generated_Source\PSoC5/cyfitter_cfg.c **** static void CYCONFIGCPY(void *dest, const void *src, size_t n);
  83:Generated_Source\PSoC5/cyfitter_cfg.c **** CY_CFG_UNUSED
  84:Generated_Source\PSoC5/cyfitter_cfg.c **** static void CYCONFIGCPY(void *dest, const void *src, size_t n)
  85:Generated_Source\PSoC5/cyfitter_cfg.c **** {
  86:Generated_Source\PSoC5/cyfitter_cfg.c **** 	(void)memcpy(dest, src, n);
  87:Generated_Source\PSoC5/cyfitter_cfg.c **** }
  88:Generated_Source\PSoC5/cyfitter_cfg.c **** CY_CFG_UNUSED
ARM GAS  C:\Users\ariky\AppData\Local\Temp\ccqJuICG.s 			page 3


  89:Generated_Source\PSoC5/cyfitter_cfg.c **** static void CYCONFIGCPYCODE(void *dest, const void *src, size_t n);
  90:Generated_Source\PSoC5/cyfitter_cfg.c **** CY_CFG_UNUSED
  91:Generated_Source\PSoC5/cyfitter_cfg.c **** static void CYCONFIGCPYCODE(void *dest, const void *src, size_t n)
  92:Generated_Source\PSoC5/cyfitter_cfg.c **** {
  93:Generated_Source\PSoC5/cyfitter_cfg.c **** 	(void)memcpy(dest, src, n);
  94:Generated_Source\PSoC5/cyfitter_cfg.c **** }
  95:Generated_Source\PSoC5/cyfitter_cfg.c **** 
  96:Generated_Source\PSoC5/cyfitter_cfg.c **** 
  97:Generated_Source\PSoC5/cyfitter_cfg.c **** 
  98:Generated_Source\PSoC5/cyfitter_cfg.c **** 
  99:Generated_Source\PSoC5/cyfitter_cfg.c **** /* Clock startup error codes                                                   */
 100:Generated_Source\PSoC5/cyfitter_cfg.c **** #define CYCLOCKSTART_NO_ERROR    0u
 101:Generated_Source\PSoC5/cyfitter_cfg.c **** #define CYCLOCKSTART_XTAL_ERROR  1u
 102:Generated_Source\PSoC5/cyfitter_cfg.c **** #define CYCLOCKSTART_32KHZ_ERROR 2u
 103:Generated_Source\PSoC5/cyfitter_cfg.c **** #define CYCLOCKSTART_PLL_ERROR   3u
 104:Generated_Source\PSoC5/cyfitter_cfg.c **** #define CYCLOCKSTART_FLL_ERROR   4u
 105:Generated_Source\PSoC5/cyfitter_cfg.c **** #define CYCLOCKSTART_WCO_ERROR   5u
 106:Generated_Source\PSoC5/cyfitter_cfg.c **** 
 107:Generated_Source\PSoC5/cyfitter_cfg.c **** 
 108:Generated_Source\PSoC5/cyfitter_cfg.c **** #ifdef CY_NEED_CYCLOCKSTARTUPERROR
 109:Generated_Source\PSoC5/cyfitter_cfg.c **** /*******************************************************************************
 110:Generated_Source\PSoC5/cyfitter_cfg.c **** * Function Name: CyClockStartupError
 111:Generated_Source\PSoC5/cyfitter_cfg.c **** ********************************************************************************
 112:Generated_Source\PSoC5/cyfitter_cfg.c **** * Summary:
 113:Generated_Source\PSoC5/cyfitter_cfg.c **** *  If an error is encountered during clock configuration (crystal startup error,
 114:Generated_Source\PSoC5/cyfitter_cfg.c **** *  PLL lock error, etc.), the system will end up here.  Unless reimplemented by
 115:Generated_Source\PSoC5/cyfitter_cfg.c **** *  the customer, this function will stop in an infinite loop.
 116:Generated_Source\PSoC5/cyfitter_cfg.c **** *
 117:Generated_Source\PSoC5/cyfitter_cfg.c **** * Parameters:
 118:Generated_Source\PSoC5/cyfitter_cfg.c **** *   void
 119:Generated_Source\PSoC5/cyfitter_cfg.c **** *
 120:Generated_Source\PSoC5/cyfitter_cfg.c **** * Return:
 121:Generated_Source\PSoC5/cyfitter_cfg.c **** *   void
 122:Generated_Source\PSoC5/cyfitter_cfg.c **** *
 123:Generated_Source\PSoC5/cyfitter_cfg.c **** *******************************************************************************/
 124:Generated_Source\PSoC5/cyfitter_cfg.c **** CY_CFG_UNUSED
 125:Generated_Source\PSoC5/cyfitter_cfg.c **** static void CyClockStartupError(uint8 errorCode);
 126:Generated_Source\PSoC5/cyfitter_cfg.c **** CY_CFG_UNUSED
 127:Generated_Source\PSoC5/cyfitter_cfg.c **** static void CyClockStartupError(uint8 errorCode)
 128:Generated_Source\PSoC5/cyfitter_cfg.c **** {
  27              		.loc 1 128 0
  28              		.cfi_startproc
  29              		@ Volatile: function does not return.
  30              		@ args = 0, pretend = 0, frame = 0
  31              		@ frame_needed = 0, uses_anonymous_args = 0
  32              		@ link register save eliminated.
  33              	.LVL0:
  34              	.L2:
  35 0000 FEE7     		b	.L2
  36              		.cfi_endproc
  37              	.LFE3:
  38              		.size	CyClockStartupError, .-CyClockStartupError
  39 0002 00BF     		.section	.text.cfg_write_bytes32,"ax",%progbits
  40              		.align	2
  41              		.thumb
  42              		.thumb_func
  43              		.type	cfg_write_bytes32, %function
ARM GAS  C:\Users\ariky\AppData\Local\Temp\ccqJuICG.s 			page 4


  44              	cfg_write_bytes32:
  45              	.LFB4:
 129:Generated_Source\PSoC5/cyfitter_cfg.c ****     /* To remove the compiler warning if errorCode not used.                */
 130:Generated_Source\PSoC5/cyfitter_cfg.c ****     errorCode = errorCode;
 131:Generated_Source\PSoC5/cyfitter_cfg.c **** 
 132:Generated_Source\PSoC5/cyfitter_cfg.c ****     /* If we have a clock startup error (bad MHz crystal, PLL lock, etc.),  */
 133:Generated_Source\PSoC5/cyfitter_cfg.c ****     /* we will end up here to allow the customer to implement something to  */
 134:Generated_Source\PSoC5/cyfitter_cfg.c ****     /* deal with the clock condition.                                       */
 135:Generated_Source\PSoC5/cyfitter_cfg.c **** 
 136:Generated_Source\PSoC5/cyfitter_cfg.c **** #ifdef CY_CFG_CLOCK_STARTUP_ERROR_CALLBACK
 137:Generated_Source\PSoC5/cyfitter_cfg.c ****     CY_CFG_Clock_Startup_ErrorCallback();
 138:Generated_Source\PSoC5/cyfitter_cfg.c **** #else
 139:Generated_Source\PSoC5/cyfitter_cfg.c ****     /*  If not using CY_CFG_CLOCK_STARTUP_ERROR_CALLBACK, place your clock startup code here. */
 140:Generated_Source\PSoC5/cyfitter_cfg.c ****     /* `#START CyClockStartupError` */
 141:Generated_Source\PSoC5/cyfitter_cfg.c **** 
 142:Generated_Source\PSoC5/cyfitter_cfg.c **** 
 143:Generated_Source\PSoC5/cyfitter_cfg.c **** 
 144:Generated_Source\PSoC5/cyfitter_cfg.c ****     /* `#END` */
 145:Generated_Source\PSoC5/cyfitter_cfg.c **** 
 146:Generated_Source\PSoC5/cyfitter_cfg.c ****     while(1) {}
 147:Generated_Source\PSoC5/cyfitter_cfg.c **** #endif /* CY_CFG_CLOCK_STARTUP_ERROR_CALLBACK */
 148:Generated_Source\PSoC5/cyfitter_cfg.c **** }
 149:Generated_Source\PSoC5/cyfitter_cfg.c **** #endif
 150:Generated_Source\PSoC5/cyfitter_cfg.c **** 
 151:Generated_Source\PSoC5/cyfitter_cfg.c **** #define CY_CFG_BASE_ADDR_COUNT 31u
 152:Generated_Source\PSoC5/cyfitter_cfg.c **** CYPACKED typedef struct
 153:Generated_Source\PSoC5/cyfitter_cfg.c **** {
 154:Generated_Source\PSoC5/cyfitter_cfg.c **** 	uint8 offset;
 155:Generated_Source\PSoC5/cyfitter_cfg.c **** 	uint8 value;
 156:Generated_Source\PSoC5/cyfitter_cfg.c **** } CYPACKED_ATTR cy_cfg_addrvalue_t;
 157:Generated_Source\PSoC5/cyfitter_cfg.c **** 
 158:Generated_Source\PSoC5/cyfitter_cfg.c **** #define cy_cfg_addr_table ((const uint32 CYFAR *)0x48000000u)
 159:Generated_Source\PSoC5/cyfitter_cfg.c **** #define cy_cfg_data_table ((const cy_cfg_addrvalue_t CYFAR *)0x4800007Cu)
 160:Generated_Source\PSoC5/cyfitter_cfg.c **** 
 161:Generated_Source\PSoC5/cyfitter_cfg.c **** /* IOPORT_7 Address: CYDEV_PRTDSI_PRT12_BASE Size (bytes): 6 */
 162:Generated_Source\PSoC5/cyfitter_cfg.c **** #define BS_IOPORT_7_VAL ((const uint8 CYFAR *)0x48000250u)
 163:Generated_Source\PSoC5/cyfitter_cfg.c **** 
 164:Generated_Source\PSoC5/cyfitter_cfg.c **** /* IOPINS0_0 Address: CYREG_PRT0_DM0 Size (bytes): 8 */
 165:Generated_Source\PSoC5/cyfitter_cfg.c **** #define BS_IOPINS0_0_VAL ((const uint8 CYFAR *)0x48000258u)
 166:Generated_Source\PSoC5/cyfitter_cfg.c **** 
 167:Generated_Source\PSoC5/cyfitter_cfg.c **** /* IOPINS0_7 Address: CYREG_PRT12_DR Size (bytes): 10 */
 168:Generated_Source\PSoC5/cyfitter_cfg.c **** #define BS_IOPINS0_7_VAL ((const uint8 CYFAR *)0x48000260u)
 169:Generated_Source\PSoC5/cyfitter_cfg.c **** 
 170:Generated_Source\PSoC5/cyfitter_cfg.c **** /* IOPINS0_8 Address: CYREG_PRT15_DR Size (bytes): 10 */
 171:Generated_Source\PSoC5/cyfitter_cfg.c **** #define BS_IOPINS0_8_VAL ((const uint8 CYFAR *)0x4800026Cu)
 172:Generated_Source\PSoC5/cyfitter_cfg.c **** 
 173:Generated_Source\PSoC5/cyfitter_cfg.c **** /* IOPINS0_1 Address: CYREG_PRT1_DM0 Size (bytes): 8 */
 174:Generated_Source\PSoC5/cyfitter_cfg.c **** #define BS_IOPINS0_1_VAL ((const uint8 CYFAR *)0x48000278u)
 175:Generated_Source\PSoC5/cyfitter_cfg.c **** 
 176:Generated_Source\PSoC5/cyfitter_cfg.c **** /* IOPINS0_2 Address: CYREG_PRT2_DM0 Size (bytes): 8 */
 177:Generated_Source\PSoC5/cyfitter_cfg.c **** #define BS_IOPINS0_2_VAL ((const uint8 CYFAR *)0x48000280u)
 178:Generated_Source\PSoC5/cyfitter_cfg.c **** 
 179:Generated_Source\PSoC5/cyfitter_cfg.c **** /* CYDEV_CLKDIST_ACFG0_CFG0 Address: CYREG_CLKDIST_ACFG0_CFG0 Size (bytes): 12 */
 180:Generated_Source\PSoC5/cyfitter_cfg.c **** #define BS_CYDEV_CLKDIST_ACFG0_CFG0_VAL ((const uint8 CYFAR *)0x48000288u)
 181:Generated_Source\PSoC5/cyfitter_cfg.c **** 
 182:Generated_Source\PSoC5/cyfitter_cfg.c **** /* PHUB_CFGMEM2 Address: CYREG_PHUB_CFGMEM2_CFG0 Size (bytes): 4 */
 183:Generated_Source\PSoC5/cyfitter_cfg.c **** #define BS_PHUB_CFGMEM2_VAL ((const uint8 CYFAR *)0x48000294u)
ARM GAS  C:\Users\ariky\AppData\Local\Temp\ccqJuICG.s 			page 5


 184:Generated_Source\PSoC5/cyfitter_cfg.c **** 
 185:Generated_Source\PSoC5/cyfitter_cfg.c **** /* PHUB_CFGMEM3 Address: CYREG_PHUB_CFGMEM3_CFG0 Size (bytes): 4 */
 186:Generated_Source\PSoC5/cyfitter_cfg.c **** #define BS_PHUB_CFGMEM3_VAL ((const uint8 CYFAR *)0x48000298u)
 187:Generated_Source\PSoC5/cyfitter_cfg.c **** 
 188:Generated_Source\PSoC5/cyfitter_cfg.c **** 
 189:Generated_Source\PSoC5/cyfitter_cfg.c **** /*******************************************************************************
 190:Generated_Source\PSoC5/cyfitter_cfg.c **** * Function Name: cfg_write_bytes32
 191:Generated_Source\PSoC5/cyfitter_cfg.c **** ********************************************************************************
 192:Generated_Source\PSoC5/cyfitter_cfg.c **** * Summary:
 193:Generated_Source\PSoC5/cyfitter_cfg.c **** *  This function is used for setting up the chip configuration areas that
 194:Generated_Source\PSoC5/cyfitter_cfg.c **** *  contain relatively sparse data.
 195:Generated_Source\PSoC5/cyfitter_cfg.c **** *
 196:Generated_Source\PSoC5/cyfitter_cfg.c **** * Parameters:
 197:Generated_Source\PSoC5/cyfitter_cfg.c **** *   void
 198:Generated_Source\PSoC5/cyfitter_cfg.c **** *
 199:Generated_Source\PSoC5/cyfitter_cfg.c **** * Return:
 200:Generated_Source\PSoC5/cyfitter_cfg.c **** *   void
 201:Generated_Source\PSoC5/cyfitter_cfg.c **** *
 202:Generated_Source\PSoC5/cyfitter_cfg.c **** *******************************************************************************/
 203:Generated_Source\PSoC5/cyfitter_cfg.c **** static void cfg_write_bytes32(const uint32 addr_table[], const cy_cfg_addrvalue_t data_table[]);
 204:Generated_Source\PSoC5/cyfitter_cfg.c **** static void cfg_write_bytes32(const uint32 addr_table[], const cy_cfg_addrvalue_t data_table[])
 205:Generated_Source\PSoC5/cyfitter_cfg.c **** {
  46              		.loc 1 205 0
  47              		.cfi_startproc
  48              		@ args = 0, pretend = 0, frame = 0
  49              		@ frame_needed = 0, uses_anonymous_args = 0
  50              		@ link register save eliminated.
  51              	.LVL1:
  52              		.loc 1 205 0
  53 0000 F0B4     		push	{r4, r5, r6, r7}
  54              		.cfi_def_cfa_offset 16
  55              		.cfi_offset 4, -16
  56              		.cfi_offset 5, -12
  57              		.cfi_offset 6, -8
  58              		.cfi_offset 7, -4
  59              	.LVL2:
 206:Generated_Source\PSoC5/cyfitter_cfg.c **** 	/* For 32-bit little-endian architectures */
 207:Generated_Source\PSoC5/cyfitter_cfg.c **** 	uint32 i, j = 0u;
  60              		.loc 1 207 0
  61 0002 0022     		movs	r2, #0
 208:Generated_Source\PSoC5/cyfitter_cfg.c **** 	for (i = 0u; i < CY_CFG_BASE_ADDR_COUNT; i++)
  62              		.loc 1 208 0
  63 0004 1746     		mov	r7, r2
  64 0006 11E0     		b	.L4
  65              	.LVL3:
  66              	.L7:
  67              	.LBB2:
 209:Generated_Source\PSoC5/cyfitter_cfg.c **** 	{
 210:Generated_Source\PSoC5/cyfitter_cfg.c **** 		uint32 baseAddr = addr_table[i];
  68              		.loc 1 210 0
  69 0008 50F82760 		ldr	r6, [r0, r7, lsl #2]
  70              	.LVL4:
 211:Generated_Source\PSoC5/cyfitter_cfg.c **** 		uint8 count = (uint8)baseAddr;
  71              		.loc 1 211 0
  72 000c F3B2     		uxtb	r3, r6
  73              	.LVL5:
 212:Generated_Source\PSoC5/cyfitter_cfg.c **** 		baseAddr &= 0xFFFFFF00u;
ARM GAS  C:\Users\ariky\AppData\Local\Temp\ccqJuICG.s 			page 6


  74              		.loc 1 212 0
  75 000e 26F0FF06 		bic	r6, r6, #255
  76              	.LVL6:
 213:Generated_Source\PSoC5/cyfitter_cfg.c **** 		while (count != 0u)
  77              		.loc 1 213 0
  78 0012 08E0     		b	.L5
  79              	.L6:
 214:Generated_Source\PSoC5/cyfitter_cfg.c **** 		{
 215:Generated_Source\PSoC5/cyfitter_cfg.c **** 			CY_SET_REG8((void *)(baseAddr + data_table[j].offset), data_table[j].value);
  80              		.loc 1 215 0
  81 0014 01EB4205 		add	r5, r1, r2, lsl #1
  82 0018 11F81240 		ldrb	r4, [r1, r2, lsl #1]	@ zero_extendqisi2
  83 001c 6D78     		ldrb	r5, [r5, #1]	@ zero_extendqisi2
  84 001e A555     		strb	r5, [r4, r6]
 216:Generated_Source\PSoC5/cyfitter_cfg.c **** 			j++;
  85              		.loc 1 216 0
  86 0020 0132     		adds	r2, r2, #1
  87              	.LVL7:
 217:Generated_Source\PSoC5/cyfitter_cfg.c **** 			count--;
  88              		.loc 1 217 0
  89 0022 013B     		subs	r3, r3, #1
  90              	.LVL8:
  91 0024 DBB2     		uxtb	r3, r3
  92              	.LVL9:
  93              	.L5:
 213:Generated_Source\PSoC5/cyfitter_cfg.c **** 		{
  94              		.loc 1 213 0
  95 0026 002B     		cmp	r3, #0
  96 0028 F4D1     		bne	.L6
  97              	.LBE2:
 208:Generated_Source\PSoC5/cyfitter_cfg.c **** 	{
  98              		.loc 1 208 0 discriminator 2
  99 002a 0137     		adds	r7, r7, #1
 100              	.LVL10:
 101              	.L4:
 208:Generated_Source\PSoC5/cyfitter_cfg.c **** 	{
 102              		.loc 1 208 0 is_stmt 0 discriminator 1
 103 002c 1E2F     		cmp	r7, #30
 104 002e EBD9     		bls	.L7
 218:Generated_Source\PSoC5/cyfitter_cfg.c **** 		}
 219:Generated_Source\PSoC5/cyfitter_cfg.c **** 	}
 220:Generated_Source\PSoC5/cyfitter_cfg.c **** }
 105              		.loc 1 220 0 is_stmt 1
 106 0030 F0BC     		pop	{r4, r5, r6, r7}
 107              		.cfi_restore 7
 108              		.cfi_restore 6
 109              		.cfi_restore 5
 110              		.cfi_restore 4
 111              		.cfi_def_cfa_offset 0
 112              	.LVL11:
 113 0032 7047     		bx	lr
 114              		.cfi_endproc
 115              	.LFE4:
 116              		.size	cfg_write_bytes32, .-cfg_write_bytes32
 117              		.section	.text.CYMEMZERO,"ax",%progbits
 118              		.align	2
 119              		.thumb
ARM GAS  C:\Users\ariky\AppData\Local\Temp\ccqJuICG.s 			page 7


 120              		.thumb_func
 121              		.type	CYMEMZERO, %function
 122              	CYMEMZERO:
 123              	.LFB0:
  78:Generated_Source\PSoC5/cyfitter_cfg.c **** 	(void)memset(s, 0, n);
 124              		.loc 1 78 0
 125              		.cfi_startproc
 126              		@ args = 0, pretend = 0, frame = 0
 127              		@ frame_needed = 0, uses_anonymous_args = 0
 128              	.LVL12:
 129 0000 08B5     		push	{r3, lr}
 130              		.cfi_def_cfa_offset 8
 131              		.cfi_offset 3, -8
 132              		.cfi_offset 14, -4
  79:Generated_Source\PSoC5/cyfitter_cfg.c **** }
 133              		.loc 1 79 0
 134 0002 0A46     		mov	r2, r1
 135 0004 0021     		movs	r1, #0
 136              	.LVL13:
 137 0006 FFF7FEFF 		bl	memset
 138              	.LVL14:
 139 000a 08BD     		pop	{r3, pc}
 140              		.cfi_endproc
 141              	.LFE0:
 142              		.size	CYMEMZERO, .-CYMEMZERO
 143              		.section	.text.AnalogSetDefault,"ax",%progbits
 144              		.align	2
 145              		.thumb
 146              		.thumb_func
 147              		.type	AnalogSetDefault, %function
 148              	AnalogSetDefault:
 149              	.LFB6:
 221:Generated_Source\PSoC5/cyfitter_cfg.c **** 
 222:Generated_Source\PSoC5/cyfitter_cfg.c **** /*******************************************************************************
 223:Generated_Source\PSoC5/cyfitter_cfg.c **** * Function Name: ClockSetup
 224:Generated_Source\PSoC5/cyfitter_cfg.c **** ********************************************************************************
 225:Generated_Source\PSoC5/cyfitter_cfg.c **** *
 226:Generated_Source\PSoC5/cyfitter_cfg.c **** * Summary:
 227:Generated_Source\PSoC5/cyfitter_cfg.c **** *  Performs the initialization of all of the clocks in the device based on the
 228:Generated_Source\PSoC5/cyfitter_cfg.c **** *  settings in the Clock tab of the DWR.  This includes enabling the requested
 229:Generated_Source\PSoC5/cyfitter_cfg.c **** *  clocks and setting the necessary dividers to produce the desired frequency. 
 230:Generated_Source\PSoC5/cyfitter_cfg.c **** *
 231:Generated_Source\PSoC5/cyfitter_cfg.c **** * Parameters:
 232:Generated_Source\PSoC5/cyfitter_cfg.c **** *  void
 233:Generated_Source\PSoC5/cyfitter_cfg.c **** *
 234:Generated_Source\PSoC5/cyfitter_cfg.c **** * Return:
 235:Generated_Source\PSoC5/cyfitter_cfg.c **** *  void
 236:Generated_Source\PSoC5/cyfitter_cfg.c **** *
 237:Generated_Source\PSoC5/cyfitter_cfg.c **** *******************************************************************************/
 238:Generated_Source\PSoC5/cyfitter_cfg.c **** static void ClockSetup(void);
 239:Generated_Source\PSoC5/cyfitter_cfg.c **** static void ClockSetup(void)
 240:Generated_Source\PSoC5/cyfitter_cfg.c **** {
 241:Generated_Source\PSoC5/cyfitter_cfg.c **** 	uint32 timeout;
 242:Generated_Source\PSoC5/cyfitter_cfg.c **** 	uint8 pllLock;
 243:Generated_Source\PSoC5/cyfitter_cfg.c **** 
 244:Generated_Source\PSoC5/cyfitter_cfg.c **** 
 245:Generated_Source\PSoC5/cyfitter_cfg.c **** 	/* Configure Digital Clocks based on settings from Clock DWR */
ARM GAS  C:\Users\ariky\AppData\Local\Temp\ccqJuICG.s 			page 8


 246:Generated_Source\PSoC5/cyfitter_cfg.c **** 	CY_SET_XTND_REG16((void CYFAR *)(CYREG_CLKDIST_DCFG0_CFG0), 0x0000u);
 247:Generated_Source\PSoC5/cyfitter_cfg.c **** 	CY_SET_XTND_REG8((void CYFAR *)(CYREG_CLKDIST_DCFG0_CFG0 + 0x2u), 0x50u);
 248:Generated_Source\PSoC5/cyfitter_cfg.c **** 	CY_SET_XTND_REG16((void CYFAR *)(CYREG_CLKDIST_DCFG1_CFG0), 0x00EFu);
 249:Generated_Source\PSoC5/cyfitter_cfg.c **** 	CY_SET_XTND_REG8((void CYFAR *)(CYREG_CLKDIST_DCFG1_CFG0 + 0x2u), 0x18u);
 250:Generated_Source\PSoC5/cyfitter_cfg.c **** 
 251:Generated_Source\PSoC5/cyfitter_cfg.c **** 	/* Configure Analog Clocks based on settings from Clock DWR */
 252:Generated_Source\PSoC5/cyfitter_cfg.c **** 	CYCONFIGCPY((void CYFAR *)(CYREG_CLKDIST_ACFG0_CFG0), (const void CYFAR *)(BS_CYDEV_CLKDIST_ACFG0_
 253:Generated_Source\PSoC5/cyfitter_cfg.c **** 
 254:Generated_Source\PSoC5/cyfitter_cfg.c **** 	/* Configure ILO based on settings from Clock DWR */
 255:Generated_Source\PSoC5/cyfitter_cfg.c **** 	CY_SET_XTND_REG8((void CYFAR *)(CYREG_SLOWCLK_ILO_CR0), 0x06u);
 256:Generated_Source\PSoC5/cyfitter_cfg.c **** 
 257:Generated_Source\PSoC5/cyfitter_cfg.c **** 	/* Configure IMO based on settings from Clock DWR */
 258:Generated_Source\PSoC5/cyfitter_cfg.c **** 	CY_SET_XTND_REG8((void CYFAR *)(CYREG_FASTCLK_IMO_CR), 0x52u);
 259:Generated_Source\PSoC5/cyfitter_cfg.c **** 	CY_SET_XTND_REG8((void CYFAR *)(CYREG_IMO_TR1), (CY_GET_XTND_REG8((void CYFAR *)CYREG_FLSHID_CUST_
 260:Generated_Source\PSoC5/cyfitter_cfg.c **** 
 261:Generated_Source\PSoC5/cyfitter_cfg.c **** 	/* Configure PLL based on settings from Clock DWR */
 262:Generated_Source\PSoC5/cyfitter_cfg.c **** 	CY_SET_XTND_REG16((void CYFAR *)(CYREG_FASTCLK_PLL_P), 0x0708u);
 263:Generated_Source\PSoC5/cyfitter_cfg.c **** 	CY_SET_XTND_REG16((void CYFAR *)(CYREG_FASTCLK_PLL_CFG0), 0x1251u);
 264:Generated_Source\PSoC5/cyfitter_cfg.c **** 	/* Wait up to 250us for the PLL to lock */
 265:Generated_Source\PSoC5/cyfitter_cfg.c **** 	pllLock = 0u;
 266:Generated_Source\PSoC5/cyfitter_cfg.c **** 	for (timeout = 250u / 10u; (timeout > 0u) && (pllLock != 0x03u); timeout--)
 267:Generated_Source\PSoC5/cyfitter_cfg.c **** 	{ 
 268:Generated_Source\PSoC5/cyfitter_cfg.c **** 		pllLock = 0x03u & ((uint8)((uint8)pllLock << 1) | ((CY_GET_XTND_REG8((void CYFAR *)CYREG_FASTCLK_
 269:Generated_Source\PSoC5/cyfitter_cfg.c **** 		CyDelayCycles(10u * 48u); /* Delay 10us based on 48MHz clock */
 270:Generated_Source\PSoC5/cyfitter_cfg.c **** 	}
 271:Generated_Source\PSoC5/cyfitter_cfg.c **** 	/* If we ran out of time the PLL didn't lock so go to the error function */
 272:Generated_Source\PSoC5/cyfitter_cfg.c **** 	if (timeout == 0u)
 273:Generated_Source\PSoC5/cyfitter_cfg.c **** 	{
 274:Generated_Source\PSoC5/cyfitter_cfg.c **** 		CyClockStartupError(CYCLOCKSTART_PLL_ERROR);
 275:Generated_Source\PSoC5/cyfitter_cfg.c **** 	}
 276:Generated_Source\PSoC5/cyfitter_cfg.c **** 
 277:Generated_Source\PSoC5/cyfitter_cfg.c **** 	/* Configure Bus/Master Clock based on settings from Clock DWR */
 278:Generated_Source\PSoC5/cyfitter_cfg.c **** 	CY_SET_XTND_REG16((void CYFAR *)(CYREG_CLKDIST_MSTR0), 0x0100u);
 279:Generated_Source\PSoC5/cyfitter_cfg.c **** 	CY_SET_XTND_REG8((void CYFAR *)(CYREG_CLKDIST_MSTR0), 0x07u);
 280:Generated_Source\PSoC5/cyfitter_cfg.c **** 	CY_SET_XTND_REG8((void CYFAR *)(CYREG_CLKDIST_BCFG0), 0x00u);
 281:Generated_Source\PSoC5/cyfitter_cfg.c **** 	CY_SET_XTND_REG8((void CYFAR *)(CYREG_CLKDIST_BCFG2), 0x48u);
 282:Generated_Source\PSoC5/cyfitter_cfg.c **** 	CY_SET_XTND_REG8((void CYFAR *)(CYREG_CLKDIST_MSTR0), 0x00u);
 283:Generated_Source\PSoC5/cyfitter_cfg.c **** 
 284:Generated_Source\PSoC5/cyfitter_cfg.c **** 	/* Configure USB Clock based on settings from Clock DWR */
 285:Generated_Source\PSoC5/cyfitter_cfg.c **** 	CY_SET_XTND_REG8((void CYFAR *)(CYREG_CLKDIST_UCFG), 0x00u);
 286:Generated_Source\PSoC5/cyfitter_cfg.c **** 	CY_SET_XTND_REG8((void CYFAR *)(CYREG_CLKDIST_LD), 0x02u);
 287:Generated_Source\PSoC5/cyfitter_cfg.c **** 	CY_SET_XTND_REG8((void CYFAR *)(CYREG_CLKDIST_DLY1), 0x04u);
 288:Generated_Source\PSoC5/cyfitter_cfg.c **** 
 289:Generated_Source\PSoC5/cyfitter_cfg.c **** 	CY_SET_XTND_REG8((void CYFAR *)(CYREG_PM_ACT_CFG2), ((CY_GET_XTND_REG8((void CYFAR *)CYREG_PM_ACT_
 290:Generated_Source\PSoC5/cyfitter_cfg.c **** 	CY_SET_XTND_REG8((void CYFAR *)(CYREG_PM_ACT_CFG1), ((CY_GET_XTND_REG8((void CYFAR *)CYREG_PM_ACT_
 291:Generated_Source\PSoC5/cyfitter_cfg.c **** 	CY_SET_XTND_REG8((void CYFAR *)(CYREG_PM_ACT_CFG0), ((CY_GET_XTND_REG8((void CYFAR *)CYREG_PM_ACT_
 292:Generated_Source\PSoC5/cyfitter_cfg.c **** }
 293:Generated_Source\PSoC5/cyfitter_cfg.c **** 
 294:Generated_Source\PSoC5/cyfitter_cfg.c **** 
 295:Generated_Source\PSoC5/cyfitter_cfg.c **** /* Analog API Functions */
 296:Generated_Source\PSoC5/cyfitter_cfg.c **** 
 297:Generated_Source\PSoC5/cyfitter_cfg.c **** 
 298:Generated_Source\PSoC5/cyfitter_cfg.c **** /*******************************************************************************
 299:Generated_Source\PSoC5/cyfitter_cfg.c **** * Function Name: AnalogSetDefault
 300:Generated_Source\PSoC5/cyfitter_cfg.c **** ********************************************************************************
 301:Generated_Source\PSoC5/cyfitter_cfg.c **** *
 302:Generated_Source\PSoC5/cyfitter_cfg.c **** * Summary:
ARM GAS  C:\Users\ariky\AppData\Local\Temp\ccqJuICG.s 			page 9


 303:Generated_Source\PSoC5/cyfitter_cfg.c **** *  Sets up the analog portions of the chip to default values based on chip
 304:Generated_Source\PSoC5/cyfitter_cfg.c **** *  configuration options from the project.
 305:Generated_Source\PSoC5/cyfitter_cfg.c **** *
 306:Generated_Source\PSoC5/cyfitter_cfg.c **** * Parameters:
 307:Generated_Source\PSoC5/cyfitter_cfg.c **** *  void
 308:Generated_Source\PSoC5/cyfitter_cfg.c **** *
 309:Generated_Source\PSoC5/cyfitter_cfg.c **** * Return:
 310:Generated_Source\PSoC5/cyfitter_cfg.c **** *  void
 311:Generated_Source\PSoC5/cyfitter_cfg.c **** *
 312:Generated_Source\PSoC5/cyfitter_cfg.c **** *******************************************************************************/
 313:Generated_Source\PSoC5/cyfitter_cfg.c **** static void AnalogSetDefault(void);
 314:Generated_Source\PSoC5/cyfitter_cfg.c **** static void AnalogSetDefault(void)
 315:Generated_Source\PSoC5/cyfitter_cfg.c **** {
 150              		.loc 1 315 0
 151              		.cfi_startproc
 152              		@ args = 0, pretend = 0, frame = 0
 153              		@ frame_needed = 0, uses_anonymous_args = 0
 154 0000 F8B5     		push	{r3, r4, r5, r6, r7, lr}
 155              		.cfi_def_cfa_offset 24
 156              		.cfi_offset 3, -24
 157              		.cfi_offset 4, -20
 158              		.cfi_offset 5, -16
 159              		.cfi_offset 6, -12
 160              		.cfi_offset 7, -8
 161              		.cfi_offset 14, -4
 316:Generated_Source\PSoC5/cyfitter_cfg.c **** 	uint8 bg_xover_inl_trim = CY_GET_XTND_REG8((void CYFAR *)(CYREG_FLSHID_MFG_CFG_BG_XOVER_INL_TRIM +
 162              		.loc 1 316 0
 163 0002 1C4B     		ldr	r3, .L13
 164 0004 1B78     		ldrb	r3, [r3]	@ zero_extendqisi2
 165 0006 DBB2     		uxtb	r3, r3
 166              	.LVL15:
 317:Generated_Source\PSoC5/cyfitter_cfg.c **** 	uint8 cr4 = CY_GET_XTND_REG8((void CYFAR *)(CYREG_RESET_CR4));
 167              		.loc 1 317 0
 168 0008 1B4E     		ldr	r6, .L13+4
 169 000a 3478     		ldrb	r4, [r6]	@ zero_extendqisi2
 170 000c E4B2     		uxtb	r4, r4
 171              	.LVL16:
 318:Generated_Source\PSoC5/cyfitter_cfg.c **** 	uint8 cr5 = CY_GET_XTND_REG8((void CYFAR *)(CYREG_RESET_CR5));
 172              		.loc 1 318 0
 173 000e 1B4F     		ldr	r7, .L13+8
 174 0010 3D78     		ldrb	r5, [r7]	@ zero_extendqisi2
 175 0012 EDB2     		uxtb	r5, r5
 176              	.LVL17:
 319:Generated_Source\PSoC5/cyfitter_cfg.c **** 	CY_SET_XTND_REG8((void CYFAR *)(CYREG_BG_DFT0), (bg_xover_inl_trim & 0x07u));
 177              		.loc 1 319 0
 178 0014 03F00701 		and	r1, r3, #7
 179 0018 194A     		ldr	r2, .L13+12
 180 001a 1170     		strb	r1, [r2]
 320:Generated_Source\PSoC5/cyfitter_cfg.c **** 	CY_SET_XTND_REG8((void CYFAR *)(CYREG_BG_DFT1), ((bg_xover_inl_trim >> 4) & 0x0Fu));
 181              		.loc 1 320 0
 182 001c 1B09     		lsrs	r3, r3, #4
 183              	.LVL18:
 184 001e 0132     		adds	r2, r2, #1
 185 0020 1370     		strb	r3, [r2]
 321:Generated_Source\PSoC5/cyfitter_cfg.c **** 	/* Disable PRES while setting up SAR voltage reference */
 322:Generated_Source\PSoC5/cyfitter_cfg.c **** 	CY_SET_XTND_REG8((void CYFAR *)(CYREG_RESET_CR4), (cr4 | 0x03u));
 186              		.loc 1 322 0
ARM GAS  C:\Users\ariky\AppData\Local\Temp\ccqJuICG.s 			page 10


 187 0022 44F00303 		orr	r3, r4, #3
 188 0026 3370     		strb	r3, [r6]
 323:Generated_Source\PSoC5/cyfitter_cfg.c **** 	CY_SET_XTND_REG8((void CYFAR *)(CYREG_RESET_CR5), (cr5 | 0x03u));
 189              		.loc 1 323 0
 190 0028 45F00303 		orr	r3, r5, #3
 191 002c 3B70     		strb	r3, [r7]
 324:Generated_Source\PSoC5/cyfitter_cfg.c **** 	CY_SET_XTND_REG8((void CYFAR *)CYREG_PRT0_AG, 0x03u);
 192              		.loc 1 324 0
 193 002e 0322     		movs	r2, #3
 194 0030 144B     		ldr	r3, .L13+16
 195 0032 1A70     		strb	r2, [r3]
 325:Generated_Source\PSoC5/cyfitter_cfg.c **** 	CY_SET_XTND_REG8((void CYFAR *)CYREG_SAR0_CSR1, 0x40u);
 196              		.loc 1 325 0
 197 0034 4023     		movs	r3, #64
 198 0036 144A     		ldr	r2, .L13+20
 199 0038 1370     		strb	r3, [r2]
 326:Generated_Source\PSoC5/cyfitter_cfg.c **** 	CY_SET_XTND_REG8((void CYFAR *)CYREG_SAR0_CSR3, 0x40u);
 200              		.loc 1 326 0
 201 003a 0232     		adds	r2, r2, #2
 202 003c 1370     		strb	r3, [r2]
 327:Generated_Source\PSoC5/cyfitter_cfg.c **** 	CY_SET_XTND_REG8((void CYFAR *)CYREG_SAR1_CSR1, 0x40u);
 203              		.loc 1 327 0
 204 003e 0632     		adds	r2, r2, #6
 205 0040 1370     		strb	r3, [r2]
 328:Generated_Source\PSoC5/cyfitter_cfg.c **** 	CY_SET_XTND_REG8((void CYFAR *)CYREG_SAR1_CSR3, 0x40u);
 206              		.loc 1 328 0
 207 0042 0232     		adds	r2, r2, #2
 208 0044 1370     		strb	r3, [r2]
 329:Generated_Source\PSoC5/cyfitter_cfg.c **** 	CY_SET_XTND_REG8((void CYFAR *)CYREG_SAR0_SW0, 0x10u);
 209              		.loc 1 329 0
 210 0046 1022     		movs	r2, #16
 211 0048 104B     		ldr	r3, .L13+24
 212 004a 1A70     		strb	r2, [r3]
 330:Generated_Source\PSoC5/cyfitter_cfg.c **** 	CY_SET_XTND_REG8((void CYFAR *)CYREG_SAR0_SW3, 0x20u);
 213              		.loc 1 330 0
 214 004c 2023     		movs	r3, #32
 215 004e 104A     		ldr	r2, .L13+28
 216 0050 1370     		strb	r3, [r2]
 331:Generated_Source\PSoC5/cyfitter_cfg.c **** 	CY_SET_XTND_REG8((void CYFAR *)CYREG_SAR1_SW0, 0x20u);
 217              		.loc 1 331 0
 218 0052 0532     		adds	r2, r2, #5
 219 0054 1370     		strb	r3, [r2]
 332:Generated_Source\PSoC5/cyfitter_cfg.c **** 	CY_SET_XTND_REG8((void CYFAR *)CYREG_SAR1_SW3, 0x20u);
 220              		.loc 1 332 0
 221 0056 0332     		adds	r2, r2, #3
 222 0058 1370     		strb	r3, [r2]
 333:Generated_Source\PSoC5/cyfitter_cfg.c **** 	CY_SET_XTND_REG8((void CYFAR *)CYREG_BUS_SW0, 0x2Cu);
 223              		.loc 1 333 0
 224 005a 2C22     		movs	r2, #44
 225 005c 0D4B     		ldr	r3, .L13+32
 226 005e 1A70     		strb	r2, [r3]
 334:Generated_Source\PSoC5/cyfitter_cfg.c **** 	CyDelayUs(10u); /* Allow vref to settle before re-enabling PRES */
 227              		.loc 1 334 0
 228 0060 0A20     		movs	r0, #10
 229 0062 FFF7FEFF 		bl	CyDelayUs
 230              	.LVL19:
 335:Generated_Source\PSoC5/cyfitter_cfg.c **** 	CY_SET_XTND_REG8((void CYFAR *)(CYREG_RESET_CR5), (cr5));
ARM GAS  C:\Users\ariky\AppData\Local\Temp\ccqJuICG.s 			page 11


 231              		.loc 1 335 0
 232 0066 3D70     		strb	r5, [r7]
 336:Generated_Source\PSoC5/cyfitter_cfg.c **** 	CY_SET_XTND_REG8((void CYFAR *)(CYREG_RESET_CR4), (cr4));
 233              		.loc 1 336 0
 234 0068 3470     		strb	r4, [r6]
 337:Generated_Source\PSoC5/cyfitter_cfg.c **** 	CY_SET_XTND_REG8((void CYFAR *)CYREG_PUMP_CR0, 0x44u);
 235              		.loc 1 337 0
 236 006a 4422     		movs	r2, #68
 237 006c 0A4B     		ldr	r3, .L13+36
 238 006e 1A70     		strb	r2, [r3]
 239 0070 F8BD     		pop	{r3, r4, r5, r6, r7, pc}
 240              	.LVL20:
 241              	.L14:
 242 0072 00BF     		.align	2
 243              	.L13:
 244 0074 CF010049 		.word	1224737231
 245 0078 F8460040 		.word	1073759992
 246 007c F9460040 		.word	1073759993
 247 0080 6E580040 		.word	1073764462
 248 0084 0D510040 		.word	1073762573
 249 0088 01590040 		.word	1073764609
 250 008c 205B0040 		.word	1073765152
 251 0090 235B0040 		.word	1073765155
 252 0094 585B0040 		.word	1073765208
 253 0098 76580040 		.word	1073764470
 254              		.cfi_endproc
 255              	.LFE6:
 256              		.size	AnalogSetDefault, .-AnalogSetDefault
 257              		.section	.text.CYCONFIGCPY,"ax",%progbits
 258              		.align	2
 259              		.thumb
 260              		.thumb_func
 261              		.type	CYCONFIGCPY, %function
 262              	CYCONFIGCPY:
 263              	.LFB1:
  85:Generated_Source\PSoC5/cyfitter_cfg.c **** 	(void)memcpy(dest, src, n);
 264              		.loc 1 85 0
 265              		.cfi_startproc
 266              		@ args = 0, pretend = 0, frame = 0
 267              		@ frame_needed = 0, uses_anonymous_args = 0
 268              	.LVL21:
 269 0000 08B5     		push	{r3, lr}
 270              		.cfi_def_cfa_offset 8
 271              		.cfi_offset 3, -8
 272              		.cfi_offset 14, -4
  86:Generated_Source\PSoC5/cyfitter_cfg.c **** }
 273              		.loc 1 86 0
 274 0002 FFF7FEFF 		bl	memcpy
 275              	.LVL22:
 276 0006 08BD     		pop	{r3, pc}
 277              		.cfi_endproc
 278              	.LFE1:
 279              		.size	CYCONFIGCPY, .-CYCONFIGCPY
 280              		.section	.text.ClockSetup,"ax",%progbits
 281              		.align	2
 282              		.thumb
 283              		.thumb_func
ARM GAS  C:\Users\ariky\AppData\Local\Temp\ccqJuICG.s 			page 12


 284              		.type	ClockSetup, %function
 285              	ClockSetup:
 286              	.LFB5:
 240:Generated_Source\PSoC5/cyfitter_cfg.c **** 	uint32 timeout;
 287              		.loc 1 240 0
 288              		.cfi_startproc
 289              		@ args = 0, pretend = 0, frame = 0
 290              		@ frame_needed = 0, uses_anonymous_args = 0
 291 0000 38B5     		push	{r3, r4, r5, lr}
 292              		.cfi_def_cfa_offset 16
 293              		.cfi_offset 3, -16
 294              		.cfi_offset 4, -12
 295              		.cfi_offset 5, -8
 296              		.cfi_offset 14, -4
 246:Generated_Source\PSoC5/cyfitter_cfg.c **** 	CY_SET_XTND_REG8((void CYFAR *)(CYREG_CLKDIST_DCFG0_CFG0 + 0x2u), 0x50u);
 297              		.loc 1 246 0
 298 0002 0024     		movs	r4, #0
 299 0004 2F4B     		ldr	r3, .L23
 300 0006 1C80     		strh	r4, [r3]	@ movhi
 247:Generated_Source\PSoC5/cyfitter_cfg.c **** 	CY_SET_XTND_REG16((void CYFAR *)(CYREG_CLKDIST_DCFG1_CFG0), 0x00EFu);
 301              		.loc 1 247 0
 302 0008 5022     		movs	r2, #80
 303 000a 0233     		adds	r3, r3, #2
 304 000c 1A70     		strb	r2, [r3]
 248:Generated_Source\PSoC5/cyfitter_cfg.c **** 	CY_SET_XTND_REG8((void CYFAR *)(CYREG_CLKDIST_DCFG1_CFG0 + 0x2u), 0x18u);
 305              		.loc 1 248 0
 306 000e EF22     		movs	r2, #239
 307 0010 0233     		adds	r3, r3, #2
 308 0012 1A80     		strh	r2, [r3]	@ movhi
 249:Generated_Source\PSoC5/cyfitter_cfg.c **** 
 309              		.loc 1 249 0
 310 0014 1822     		movs	r2, #24
 311 0016 0233     		adds	r3, r3, #2
 312 0018 1A70     		strb	r2, [r3]
 252:Generated_Source\PSoC5/cyfitter_cfg.c **** 
 313              		.loc 1 252 0
 314 001a 0C22     		movs	r2, #12
 315 001c 2A49     		ldr	r1, .L23+4
 316 001e 2B48     		ldr	r0, .L23+8
 317 0020 FFF7FEFF 		bl	CYCONFIGCPY
 318              	.LVL23:
 255:Generated_Source\PSoC5/cyfitter_cfg.c **** 
 319              		.loc 1 255 0
 320 0024 0622     		movs	r2, #6
 321 0026 2A4B     		ldr	r3, .L23+12
 322 0028 1A70     		strb	r2, [r3]
 258:Generated_Source\PSoC5/cyfitter_cfg.c **** 	CY_SET_XTND_REG8((void CYFAR *)(CYREG_IMO_TR1), (CY_GET_XTND_REG8((void CYFAR *)CYREG_FLSHID_CUST_
 323              		.loc 1 258 0
 324 002a 5222     		movs	r2, #82
 325 002c A3F58073 		sub	r3, r3, #256
 326 0030 1A70     		strb	r2, [r3]
 259:Generated_Source\PSoC5/cyfitter_cfg.c **** 
 327              		.loc 1 259 0
 328 0032 284B     		ldr	r3, .L23+16
 329 0034 1B78     		ldrb	r3, [r3]	@ zero_extendqisi2
 330 0036 DBB2     		uxtb	r3, r3
 331 0038 274A     		ldr	r2, .L23+20
ARM GAS  C:\Users\ariky\AppData\Local\Temp\ccqJuICG.s 			page 13


 332 003a 1370     		strb	r3, [r2]
 262:Generated_Source\PSoC5/cyfitter_cfg.c **** 	CY_SET_XTND_REG16((void CYFAR *)(CYREG_FASTCLK_PLL_CFG0), 0x1251u);
 333              		.loc 1 262 0
 334 003c 4FF4E162 		mov	r2, #1800
 335 0040 264B     		ldr	r3, .L23+24
 336 0042 1A80     		strh	r2, [r3]	@ movhi
 263:Generated_Source\PSoC5/cyfitter_cfg.c **** 	/* Wait up to 250us for the PLL to lock */
 337              		.loc 1 263 0
 338 0044 41F25122 		movw	r2, #4689
 339 0048 023B     		subs	r3, r3, #2
 340 004a 1A80     		strh	r2, [r3]	@ movhi
 341              	.LVL24:
 266:Generated_Source\PSoC5/cyfitter_cfg.c **** 	{ 
 342              		.loc 1 266 0
 343 004c 1925     		movs	r5, #25
 344 004e 0CE0     		b	.L18
 345              	.LVL25:
 346              	.L20:
 268:Generated_Source\PSoC5/cyfitter_cfg.c **** 		CyDelayCycles(10u * 48u); /* Delay 10us based on 48MHz clock */
 347              		.loc 1 268 0 discriminator 4
 348 0050 234B     		ldr	r3, .L23+28
 349 0052 1B78     		ldrb	r3, [r3]	@ zero_extendqisi2
 350 0054 03F00103 		and	r3, r3, #1
 351 0058 43EA4404 		orr	r4, r3, r4, lsl #1
 352              	.LVL26:
 353 005c 04F00304 		and	r4, r4, #3
 354              	.LVL27:
 269:Generated_Source\PSoC5/cyfitter_cfg.c **** 	}
 355              		.loc 1 269 0 discriminator 4
 356 0060 4FF4F070 		mov	r0, #480
 357 0064 FFF7FEFF 		bl	CyDelayCycles
 358              	.LVL28:
 266:Generated_Source\PSoC5/cyfitter_cfg.c **** 	{ 
 359              		.loc 1 266 0 discriminator 4
 360 0068 013D     		subs	r5, r5, #1
 361              	.LVL29:
 362              	.L18:
 266:Generated_Source\PSoC5/cyfitter_cfg.c **** 	{ 
 363              		.loc 1 266 0 is_stmt 0 discriminator 1
 364 006a 0DB1     		cbz	r5, .L19
 266:Generated_Source\PSoC5/cyfitter_cfg.c **** 	{ 
 365              		.loc 1 266 0 discriminator 3
 366 006c 032C     		cmp	r4, #3
 367 006e EFD1     		bne	.L20
 368              	.L19:
 272:Generated_Source\PSoC5/cyfitter_cfg.c **** 	{
 369              		.loc 1 272 0 is_stmt 1
 370 0070 15B9     		cbnz	r5, .L21
 274:Generated_Source\PSoC5/cyfitter_cfg.c **** 	}
 371              		.loc 1 274 0
 372 0072 0320     		movs	r0, #3
 373 0074 FFF7FEFF 		bl	CyClockStartupError
 374              	.LVL30:
 375              	.L21:
 278:Generated_Source\PSoC5/cyfitter_cfg.c **** 	CY_SET_XTND_REG8((void CYFAR *)(CYREG_CLKDIST_MSTR0), 0x07u);
 376              		.loc 1 278 0
 377 0078 1A4A     		ldr	r2, .L23+32
ARM GAS  C:\Users\ariky\AppData\Local\Temp\ccqJuICG.s 			page 14


 378 007a 4FF48073 		mov	r3, #256
 379 007e 1380     		strh	r3, [r2]	@ movhi
 279:Generated_Source\PSoC5/cyfitter_cfg.c **** 	CY_SET_XTND_REG8((void CYFAR *)(CYREG_CLKDIST_BCFG0), 0x00u);
 380              		.loc 1 279 0
 381 0080 0723     		movs	r3, #7
 382 0082 1370     		strb	r3, [r2]
 280:Generated_Source\PSoC5/cyfitter_cfg.c **** 	CY_SET_XTND_REG8((void CYFAR *)(CYREG_CLKDIST_BCFG2), 0x48u);
 383              		.loc 1 280 0
 384 0084 0023     		movs	r3, #0
 385 0086 1849     		ldr	r1, .L23+36
 386 0088 0B70     		strb	r3, [r1]
 281:Generated_Source\PSoC5/cyfitter_cfg.c **** 	CY_SET_XTND_REG8((void CYFAR *)(CYREG_CLKDIST_MSTR0), 0x00u);
 387              		.loc 1 281 0
 388 008a 4820     		movs	r0, #72
 389 008c 0231     		adds	r1, r1, #2
 390 008e 0870     		strb	r0, [r1]
 282:Generated_Source\PSoC5/cyfitter_cfg.c **** 
 391              		.loc 1 282 0
 392 0090 1370     		strb	r3, [r2]
 285:Generated_Source\PSoC5/cyfitter_cfg.c **** 	CY_SET_XTND_REG8((void CYFAR *)(CYREG_CLKDIST_LD), 0x02u);
 393              		.loc 1 285 0
 394 0092 0532     		adds	r2, r2, #5
 395 0094 1370     		strb	r3, [r2]
 286:Generated_Source\PSoC5/cyfitter_cfg.c **** 	CY_SET_XTND_REG8((void CYFAR *)(CYREG_CLKDIST_DLY1), 0x04u);
 396              		.loc 1 286 0
 397 0096 0222     		movs	r2, #2
 398 0098 144B     		ldr	r3, .L23+40
 399 009a 1A70     		strb	r2, [r3]
 287:Generated_Source\PSoC5/cyfitter_cfg.c **** 
 400              		.loc 1 287 0
 401 009c 0422     		movs	r2, #4
 402 009e 0A33     		adds	r3, r3, #10
 403 00a0 1A70     		strb	r2, [r3]
 289:Generated_Source\PSoC5/cyfitter_cfg.c **** 	CY_SET_XTND_REG8((void CYFAR *)(CYREG_PM_ACT_CFG1), ((CY_GET_XTND_REG8((void CYFAR *)CYREG_PM_ACT_
 404              		.loc 1 289 0
 405 00a2 134A     		ldr	r2, .L23+44
 406 00a4 1378     		ldrb	r3, [r2]	@ zero_extendqisi2
 407 00a6 43F00303 		orr	r3, r3, #3
 408 00aa 1370     		strb	r3, [r2]
 290:Generated_Source\PSoC5/cyfitter_cfg.c **** 	CY_SET_XTND_REG8((void CYFAR *)(CYREG_PM_ACT_CFG0), ((CY_GET_XTND_REG8((void CYFAR *)CYREG_PM_ACT_
 409              		.loc 1 290 0
 410 00ac 013A     		subs	r2, r2, #1
 411 00ae 1378     		ldrb	r3, [r2]	@ zero_extendqisi2
 412 00b0 43F00703 		orr	r3, r3, #7
 413 00b4 1370     		strb	r3, [r2]
 291:Generated_Source\PSoC5/cyfitter_cfg.c **** }
 414              		.loc 1 291 0
 415 00b6 013A     		subs	r2, r2, #1
 416 00b8 1378     		ldrb	r3, [r2]	@ zero_extendqisi2
 417 00ba 43F08003 		orr	r3, r3, #128
 418 00be 1370     		strb	r3, [r2]
 419 00c0 38BD     		pop	{r3, r4, r5, pc}
 420              	.LVL31:
 421              	.L24:
 422 00c2 00BF     		.align	2
 423              	.L23:
 424 00c4 80400040 		.word	1073758336
ARM GAS  C:\Users\ariky\AppData\Local\Temp\ccqJuICG.s 			page 15


 425 00c8 88020048 		.word	1207960200
 426 00cc 00410040 		.word	1073758464
 427 00d0 00430040 		.word	1073758976
 428 00d4 0F010049 		.word	1224737039
 429 00d8 A1460040 		.word	1073759905
 430 00dc 22420040 		.word	1073758754
 431 00e0 25420040 		.word	1073758757
 432 00e4 04400040 		.word	1073758212
 433 00e8 06400040 		.word	1073758214
 434 00ec 01400040 		.word	1073758209
 435 00f0 A2430040 		.word	1073759138
 436              		.cfi_endproc
 437              	.LFE5:
 438              		.size	ClockSetup, .-ClockSetup
 439              		.section	.text.SetAnalogRoutingPumps,"ax",%progbits
 440              		.align	2
 441              		.global	SetAnalogRoutingPumps
 442              		.thumb
 443              		.thumb_func
 444              		.type	SetAnalogRoutingPumps, %function
 445              	SetAnalogRoutingPumps:
 446              	.LFB7:
 338:Generated_Source\PSoC5/cyfitter_cfg.c **** }
 339:Generated_Source\PSoC5/cyfitter_cfg.c **** 
 340:Generated_Source\PSoC5/cyfitter_cfg.c **** 
 341:Generated_Source\PSoC5/cyfitter_cfg.c **** /*******************************************************************************
 342:Generated_Source\PSoC5/cyfitter_cfg.c **** * Function Name: SetAnalogRoutingPumps
 343:Generated_Source\PSoC5/cyfitter_cfg.c **** ********************************************************************************
 344:Generated_Source\PSoC5/cyfitter_cfg.c **** *
 345:Generated_Source\PSoC5/cyfitter_cfg.c **** * Summary:
 346:Generated_Source\PSoC5/cyfitter_cfg.c **** * Enables or disables the analog pumps feeding analog routing switches.
 347:Generated_Source\PSoC5/cyfitter_cfg.c **** * Intended to be called at startup, based on the Vdda system configuration;
 348:Generated_Source\PSoC5/cyfitter_cfg.c **** * may be called during operation when the user informs us that the Vdda voltage
 349:Generated_Source\PSoC5/cyfitter_cfg.c **** * crossed the pump threshold.
 350:Generated_Source\PSoC5/cyfitter_cfg.c **** *
 351:Generated_Source\PSoC5/cyfitter_cfg.c **** * Parameters:
 352:Generated_Source\PSoC5/cyfitter_cfg.c **** *  enabled - 1 to enable the pumps, 0 to disable the pumps
 353:Generated_Source\PSoC5/cyfitter_cfg.c **** *
 354:Generated_Source\PSoC5/cyfitter_cfg.c **** * Return:
 355:Generated_Source\PSoC5/cyfitter_cfg.c **** *  void
 356:Generated_Source\PSoC5/cyfitter_cfg.c **** *
 357:Generated_Source\PSoC5/cyfitter_cfg.c **** *******************************************************************************/
 358:Generated_Source\PSoC5/cyfitter_cfg.c **** void SetAnalogRoutingPumps(uint8 enabled)
 359:Generated_Source\PSoC5/cyfitter_cfg.c **** {
 447              		.loc 1 359 0
 448              		.cfi_startproc
 449              		@ args = 0, pretend = 0, frame = 0
 450              		@ frame_needed = 0, uses_anonymous_args = 0
 451              		@ link register save eliminated.
 452              	.LVL32:
 360:Generated_Source\PSoC5/cyfitter_cfg.c **** 	uint8 regValue = CY_GET_XTND_REG8((void CYFAR *)CYREG_PUMP_CR0);
 453              		.loc 1 360 0
 454 0000 054B     		ldr	r3, .L28
 455 0002 1B78     		ldrb	r3, [r3]	@ zero_extendqisi2
 456 0004 DBB2     		uxtb	r3, r3
 457              	.LVL33:
 361:Generated_Source\PSoC5/cyfitter_cfg.c **** 	if (enabled != 0u)
ARM GAS  C:\Users\ariky\AppData\Local\Temp\ccqJuICG.s 			page 16


 458              		.loc 1 361 0
 459 0006 10B1     		cbz	r0, .L26
 362:Generated_Source\PSoC5/cyfitter_cfg.c **** 	{
 363:Generated_Source\PSoC5/cyfitter_cfg.c **** 		regValue |= 0x22u;
 460              		.loc 1 363 0
 461 0008 43F02203 		orr	r3, r3, #34
 462              	.LVL34:
 463 000c 01E0     		b	.L27
 464              	.L26:
 364:Generated_Source\PSoC5/cyfitter_cfg.c **** 	}
 365:Generated_Source\PSoC5/cyfitter_cfg.c **** 	else
 366:Generated_Source\PSoC5/cyfitter_cfg.c **** 	{
 367:Generated_Source\PSoC5/cyfitter_cfg.c **** 		regValue &= (uint8)~0x22u;
 465              		.loc 1 367 0
 466 000e 03F0DD03 		and	r3, r3, #221
 467              	.LVL35:
 468              	.L27:
 368:Generated_Source\PSoC5/cyfitter_cfg.c **** 	}
 369:Generated_Source\PSoC5/cyfitter_cfg.c **** 	CY_SET_XTND_REG8((void CYFAR *)CYREG_PUMP_CR0, regValue);
 469              		.loc 1 369 0
 470 0012 014A     		ldr	r2, .L28
 471 0014 1370     		strb	r3, [r2]
 472 0016 7047     		bx	lr
 473              	.L29:
 474              		.align	2
 475              	.L28:
 476 0018 76580040 		.word	1073764470
 477              		.cfi_endproc
 478              	.LFE7:
 479              		.size	SetAnalogRoutingPumps, .-SetAnalogRoutingPumps
 480              		.section	.text.AMux_Set,"ax",%progbits
 481              		.align	2
 482              		.global	AMux_Set
 483              		.thumb
 484              		.thumb_func
 485              		.type	AMux_Set, %function
 486              	AMux_Set:
 487              	.LFB8:
 370:Generated_Source\PSoC5/cyfitter_cfg.c **** }
 371:Generated_Source\PSoC5/cyfitter_cfg.c **** 
 372:Generated_Source\PSoC5/cyfitter_cfg.c **** 
 373:Generated_Source\PSoC5/cyfitter_cfg.c **** #define CY_AMUX_UNUSED CYREG_BOOST_SR
 374:Generated_Source\PSoC5/cyfitter_cfg.c **** /* This is an implementation detail of the AMux. Code that depends on it may be
 375:Generated_Source\PSoC5/cyfitter_cfg.c ****    incompatible with other versions of PSoC Creator. */
 376:Generated_Source\PSoC5/cyfitter_cfg.c **** uint8 CYXDATA * const CYCODE AMux__addrTable[4] = {
 377:Generated_Source\PSoC5/cyfitter_cfg.c **** 	(uint8 CYXDATA *)CYREG_PRT1_AG, (uint8 CYXDATA *)CYREG_DSM0_SW0, 
 378:Generated_Source\PSoC5/cyfitter_cfg.c **** 	(uint8 CYXDATA *)CYREG_PRT1_AG, (uint8 CYXDATA *)CYREG_DSM0_SW0, 
 379:Generated_Source\PSoC5/cyfitter_cfg.c **** };
 380:Generated_Source\PSoC5/cyfitter_cfg.c **** 
 381:Generated_Source\PSoC5/cyfitter_cfg.c **** /* This is an implementation detail of the AMux. Code that depends on it may be
 382:Generated_Source\PSoC5/cyfitter_cfg.c ****    incompatible with other versions of PSoC Creator. */
 383:Generated_Source\PSoC5/cyfitter_cfg.c **** const uint8 CYCODE AMux__maskTable[4] = {
 384:Generated_Source\PSoC5/cyfitter_cfg.c **** 	0x40u, 0x04u, 
 385:Generated_Source\PSoC5/cyfitter_cfg.c **** 	0x80u, 0x08u, 
 386:Generated_Source\PSoC5/cyfitter_cfg.c **** };
 387:Generated_Source\PSoC5/cyfitter_cfg.c **** 
 388:Generated_Source\PSoC5/cyfitter_cfg.c **** /*******************************************************************************
ARM GAS  C:\Users\ariky\AppData\Local\Temp\ccqJuICG.s 			page 17


 389:Generated_Source\PSoC5/cyfitter_cfg.c **** * Function Name: AMux_Set
 390:Generated_Source\PSoC5/cyfitter_cfg.c **** ********************************************************************************
 391:Generated_Source\PSoC5/cyfitter_cfg.c **** * Summary:
 392:Generated_Source\PSoC5/cyfitter_cfg.c **** *  This function is used to set a particular channel as active on the AMux.
 393:Generated_Source\PSoC5/cyfitter_cfg.c **** *
 394:Generated_Source\PSoC5/cyfitter_cfg.c **** * Parameters:  
 395:Generated_Source\PSoC5/cyfitter_cfg.c **** *   channel - The mux channel input to set as active
 396:Generated_Source\PSoC5/cyfitter_cfg.c **** *
 397:Generated_Source\PSoC5/cyfitter_cfg.c **** * Return:
 398:Generated_Source\PSoC5/cyfitter_cfg.c **** *   void
 399:Generated_Source\PSoC5/cyfitter_cfg.c **** *
 400:Generated_Source\PSoC5/cyfitter_cfg.c **** *******************************************************************************/
 401:Generated_Source\PSoC5/cyfitter_cfg.c **** void AMux_Set(uint8 channel)
 402:Generated_Source\PSoC5/cyfitter_cfg.c **** {
 488              		.loc 1 402 0
 489              		.cfi_startproc
 490              		@ args = 0, pretend = 0, frame = 0
 491              		@ frame_needed = 0, uses_anonymous_args = 0
 492              		@ link register save eliminated.
 493              	.LVL36:
 403:Generated_Source\PSoC5/cyfitter_cfg.c **** 	if (channel < 2)
 494              		.loc 1 403 0
 495 0000 0128     		cmp	r0, #1
 496 0002 14D8     		bhi	.L34
 402:Generated_Source\PSoC5/cyfitter_cfg.c **** 	if (channel < 2)
 497              		.loc 1 402 0
 498 0004 10B4     		push	{r4}
 499              		.cfi_def_cfa_offset 4
 500              		.cfi_offset 4, -4
 404:Generated_Source\PSoC5/cyfitter_cfg.c **** 	{
 405:Generated_Source\PSoC5/cyfitter_cfg.c **** 		channel += channel;
 501              		.loc 1 405 0
 502 0006 4000     		lsls	r0, r0, #1
 503              	.LVL37:
 504 0008 C0B2     		uxtb	r0, r0
 505              	.LVL38:
 406:Generated_Source\PSoC5/cyfitter_cfg.c **** 		*AMux__addrTable[channel] |= AMux__maskTable[channel];
 506              		.loc 1 406 0
 507 000a 094B     		ldr	r3, .L35
 508 000c 53F82010 		ldr	r1, [r3, r0, lsl #2]
 509 0010 1A18     		adds	r2, r3, r0
 510 0012 147C     		ldrb	r4, [r2, #16]	@ zero_extendqisi2
 511 0014 0A78     		ldrb	r2, [r1]	@ zero_extendqisi2
 512 0016 2243     		orrs	r2, r2, r4
 513 0018 0A70     		strb	r2, [r1]
 407:Generated_Source\PSoC5/cyfitter_cfg.c **** 		channel++;
 514              		.loc 1 407 0
 515 001a 0130     		adds	r0, r0, #1
 516              	.LVL39:
 517 001c C0B2     		uxtb	r0, r0
 518              	.LVL40:
 408:Generated_Source\PSoC5/cyfitter_cfg.c **** 		*AMux__addrTable[channel] |= AMux__maskTable[channel];
 519              		.loc 1 408 0
 520 001e 53F82020 		ldr	r2, [r3, r0, lsl #2]
 521 0022 1844     		add	r0, r0, r3
 522              	.LVL41:
 523 0024 017C     		ldrb	r1, [r0, #16]	@ zero_extendqisi2
ARM GAS  C:\Users\ariky\AppData\Local\Temp\ccqJuICG.s 			page 18


 524 0026 1378     		ldrb	r3, [r2]	@ zero_extendqisi2
 525 0028 0B43     		orrs	r3, r3, r1
 526 002a 1370     		strb	r3, [r2]
 409:Generated_Source\PSoC5/cyfitter_cfg.c **** 	}
 410:Generated_Source\PSoC5/cyfitter_cfg.c **** }
 527              		.loc 1 410 0
 528 002c 10BC     		pop	{r4}
 529              		.cfi_restore 4
 530              		.cfi_def_cfa_offset 0
 531              	.LVL42:
 532              	.L34:
 533 002e 7047     		bx	lr
 534              	.L36:
 535              		.align	2
 536              	.L35:
 537 0030 00000000 		.word	.LANCHOR0
 538              		.cfi_endproc
 539              	.LFE8:
 540              		.size	AMux_Set, .-AMux_Set
 541              		.section	.text.AMux_Unset,"ax",%progbits
 542              		.align	2
 543              		.global	AMux_Unset
 544              		.thumb
 545              		.thumb_func
 546              		.type	AMux_Unset, %function
 547              	AMux_Unset:
 548              	.LFB9:
 411:Generated_Source\PSoC5/cyfitter_cfg.c **** 
 412:Generated_Source\PSoC5/cyfitter_cfg.c **** /*******************************************************************************
 413:Generated_Source\PSoC5/cyfitter_cfg.c **** * Function Name: AMux_Unset
 414:Generated_Source\PSoC5/cyfitter_cfg.c **** ********************************************************************************
 415:Generated_Source\PSoC5/cyfitter_cfg.c **** * Summary:
 416:Generated_Source\PSoC5/cyfitter_cfg.c **** *  This function is used to clear a particular channel from being active on the
 417:Generated_Source\PSoC5/cyfitter_cfg.c **** *  AMux.
 418:Generated_Source\PSoC5/cyfitter_cfg.c **** *
 419:Generated_Source\PSoC5/cyfitter_cfg.c **** * Parameters:  
 420:Generated_Source\PSoC5/cyfitter_cfg.c **** *   channel - The mux channel input to mark inactive
 421:Generated_Source\PSoC5/cyfitter_cfg.c **** *
 422:Generated_Source\PSoC5/cyfitter_cfg.c **** * Return:
 423:Generated_Source\PSoC5/cyfitter_cfg.c **** *   void
 424:Generated_Source\PSoC5/cyfitter_cfg.c **** *
 425:Generated_Source\PSoC5/cyfitter_cfg.c **** *******************************************************************************/
 426:Generated_Source\PSoC5/cyfitter_cfg.c **** void AMux_Unset(uint8 channel)
 427:Generated_Source\PSoC5/cyfitter_cfg.c **** {
 549              		.loc 1 427 0
 550              		.cfi_startproc
 551              		@ args = 0, pretend = 0, frame = 0
 552              		@ frame_needed = 0, uses_anonymous_args = 0
 553              		@ link register save eliminated.
 554              	.LVL43:
 428:Generated_Source\PSoC5/cyfitter_cfg.c **** 	if (channel < 2)
 555              		.loc 1 428 0
 556 0000 0128     		cmp	r0, #1
 557 0002 16D8     		bhi	.L41
 427:Generated_Source\PSoC5/cyfitter_cfg.c **** 	if (channel < 2)
 558              		.loc 1 427 0
 559 0004 10B4     		push	{r4}
ARM GAS  C:\Users\ariky\AppData\Local\Temp\ccqJuICG.s 			page 19


 560              		.cfi_def_cfa_offset 4
 561              		.cfi_offset 4, -4
 429:Generated_Source\PSoC5/cyfitter_cfg.c **** 	{
 430:Generated_Source\PSoC5/cyfitter_cfg.c **** 		channel += channel;
 562              		.loc 1 430 0
 563 0006 4000     		lsls	r0, r0, #1
 564              	.LVL44:
 565 0008 C0B2     		uxtb	r0, r0
 566              	.LVL45:
 431:Generated_Source\PSoC5/cyfitter_cfg.c **** 		*AMux__addrTable[channel] &= (uint8)~AMux__maskTable[channel];
 567              		.loc 1 431 0
 568 000a 0A4B     		ldr	r3, .L42
 569 000c 53F82010 		ldr	r1, [r3, r0, lsl #2]
 570 0010 1A18     		adds	r2, r3, r0
 571 0012 147C     		ldrb	r4, [r2, #16]	@ zero_extendqisi2
 572 0014 0A78     		ldrb	r2, [r1]	@ zero_extendqisi2
 573 0016 22EA0402 		bic	r2, r2, r4
 574 001a 0A70     		strb	r2, [r1]
 432:Generated_Source\PSoC5/cyfitter_cfg.c **** 		channel++;
 575              		.loc 1 432 0
 576 001c 0130     		adds	r0, r0, #1
 577              	.LVL46:
 578 001e C0B2     		uxtb	r0, r0
 579              	.LVL47:
 433:Generated_Source\PSoC5/cyfitter_cfg.c **** 		*AMux__addrTable[channel] &= (uint8)~AMux__maskTable[channel];
 580              		.loc 1 433 0
 581 0020 53F82020 		ldr	r2, [r3, r0, lsl #2]
 582 0024 1844     		add	r0, r0, r3
 583              	.LVL48:
 584 0026 017C     		ldrb	r1, [r0, #16]	@ zero_extendqisi2
 585 0028 1378     		ldrb	r3, [r2]	@ zero_extendqisi2
 586 002a 23EA0103 		bic	r3, r3, r1
 587 002e 1370     		strb	r3, [r2]
 434:Generated_Source\PSoC5/cyfitter_cfg.c **** 	}
 435:Generated_Source\PSoC5/cyfitter_cfg.c **** }
 588              		.loc 1 435 0
 589 0030 10BC     		pop	{r4}
 590              		.cfi_restore 4
 591              		.cfi_def_cfa_offset 0
 592              	.LVL49:
 593              	.L41:
 594 0032 7047     		bx	lr
 595              	.L43:
 596              		.align	2
 597              	.L42:
 598 0034 00000000 		.word	.LANCHOR0
 599              		.cfi_endproc
 600              	.LFE9:
 601              		.size	AMux_Unset, .-AMux_Unset
 602              		.section	.text.ADC_AMux_Set,"ax",%progbits
 603              		.align	2
 604              		.global	ADC_AMux_Set
 605              		.thumb
 606              		.thumb_func
 607              		.type	ADC_AMux_Set, %function
 608              	ADC_AMux_Set:
 609              	.LFB10:
ARM GAS  C:\Users\ariky\AppData\Local\Temp\ccqJuICG.s 			page 20


 436:Generated_Source\PSoC5/cyfitter_cfg.c **** 
 437:Generated_Source\PSoC5/cyfitter_cfg.c **** /* This is an implementation detail of the AMux. Code that depends on it may be
 438:Generated_Source\PSoC5/cyfitter_cfg.c ****    incompatible with other versions of PSoC Creator. */
 439:Generated_Source\PSoC5/cyfitter_cfg.c **** uint8 CYXDATA * const CYCODE ADC_AMux__addrTable[2] = {
 440:Generated_Source\PSoC5/cyfitter_cfg.c **** 	(uint8 CYXDATA *)CYREG_DSM0_SW3, 
 441:Generated_Source\PSoC5/cyfitter_cfg.c **** 	(uint8 CYXDATA *)CY_AMUX_UNUSED, 
 442:Generated_Source\PSoC5/cyfitter_cfg.c **** };
 443:Generated_Source\PSoC5/cyfitter_cfg.c **** 
 444:Generated_Source\PSoC5/cyfitter_cfg.c **** /* This is an implementation detail of the AMux. Code that depends on it may be
 445:Generated_Source\PSoC5/cyfitter_cfg.c ****    incompatible with other versions of PSoC Creator. */
 446:Generated_Source\PSoC5/cyfitter_cfg.c **** const uint8 CYCODE ADC_AMux__maskTable[2] = {
 447:Generated_Source\PSoC5/cyfitter_cfg.c **** 	0x40u, 
 448:Generated_Source\PSoC5/cyfitter_cfg.c **** 	0x00u, 
 449:Generated_Source\PSoC5/cyfitter_cfg.c **** };
 450:Generated_Source\PSoC5/cyfitter_cfg.c **** 
 451:Generated_Source\PSoC5/cyfitter_cfg.c **** /*******************************************************************************
 452:Generated_Source\PSoC5/cyfitter_cfg.c **** * Function Name: ADC_AMux_Set
 453:Generated_Source\PSoC5/cyfitter_cfg.c **** ********************************************************************************
 454:Generated_Source\PSoC5/cyfitter_cfg.c **** * Summary:
 455:Generated_Source\PSoC5/cyfitter_cfg.c **** *  This function is used to set a particular channel as active on the AMux.
 456:Generated_Source\PSoC5/cyfitter_cfg.c **** *
 457:Generated_Source\PSoC5/cyfitter_cfg.c **** * Parameters:  
 458:Generated_Source\PSoC5/cyfitter_cfg.c **** *   channel - The mux channel input to set as active
 459:Generated_Source\PSoC5/cyfitter_cfg.c **** *
 460:Generated_Source\PSoC5/cyfitter_cfg.c **** * Return:
 461:Generated_Source\PSoC5/cyfitter_cfg.c **** *   void
 462:Generated_Source\PSoC5/cyfitter_cfg.c **** *
 463:Generated_Source\PSoC5/cyfitter_cfg.c **** *******************************************************************************/
 464:Generated_Source\PSoC5/cyfitter_cfg.c **** void ADC_AMux_Set(uint8 channel)
 465:Generated_Source\PSoC5/cyfitter_cfg.c **** {
 610              		.loc 1 465 0
 611              		.cfi_startproc
 612              		@ args = 0, pretend = 0, frame = 0
 613              		@ frame_needed = 0, uses_anonymous_args = 0
 614              		@ link register save eliminated.
 615              	.LVL50:
 466:Generated_Source\PSoC5/cyfitter_cfg.c **** 	if (channel < 2)
 616              		.loc 1 466 0
 617 0000 0128     		cmp	r0, #1
 618 0002 08D8     		bhi	.L44
 467:Generated_Source\PSoC5/cyfitter_cfg.c **** 	{
 468:Generated_Source\PSoC5/cyfitter_cfg.c **** 		*ADC_AMux__addrTable[channel] |= ADC_AMux__maskTable[channel];
 619              		.loc 1 468 0
 620 0004 044B     		ldr	r3, .L46
 621 0006 03EB8002 		add	r2, r3, r0, lsl #2
 622 000a 5269     		ldr	r2, [r2, #20]
 623 000c 1844     		add	r0, r0, r3
 624              	.LVL51:
 625 000e 017F     		ldrb	r1, [r0, #28]	@ zero_extendqisi2
 626 0010 1378     		ldrb	r3, [r2]	@ zero_extendqisi2
 627 0012 0B43     		orrs	r3, r3, r1
 628 0014 1370     		strb	r3, [r2]
 629              	.L44:
 630 0016 7047     		bx	lr
 631              	.L47:
 632              		.align	2
 633              	.L46:
ARM GAS  C:\Users\ariky\AppData\Local\Temp\ccqJuICG.s 			page 21


 634 0018 00000000 		.word	.LANCHOR0
 635              		.cfi_endproc
 636              	.LFE10:
 637              		.size	ADC_AMux_Set, .-ADC_AMux_Set
 638              		.section	.text.ADC_AMux_Unset,"ax",%progbits
 639              		.align	2
 640              		.global	ADC_AMux_Unset
 641              		.thumb
 642              		.thumb_func
 643              		.type	ADC_AMux_Unset, %function
 644              	ADC_AMux_Unset:
 645              	.LFB11:
 469:Generated_Source\PSoC5/cyfitter_cfg.c **** 	}
 470:Generated_Source\PSoC5/cyfitter_cfg.c **** }
 471:Generated_Source\PSoC5/cyfitter_cfg.c **** 
 472:Generated_Source\PSoC5/cyfitter_cfg.c **** /*******************************************************************************
 473:Generated_Source\PSoC5/cyfitter_cfg.c **** * Function Name: ADC_AMux_Unset
 474:Generated_Source\PSoC5/cyfitter_cfg.c **** ********************************************************************************
 475:Generated_Source\PSoC5/cyfitter_cfg.c **** * Summary:
 476:Generated_Source\PSoC5/cyfitter_cfg.c **** *  This function is used to clear a particular channel from being active on the
 477:Generated_Source\PSoC5/cyfitter_cfg.c **** *  AMux.
 478:Generated_Source\PSoC5/cyfitter_cfg.c **** *
 479:Generated_Source\PSoC5/cyfitter_cfg.c **** * Parameters:  
 480:Generated_Source\PSoC5/cyfitter_cfg.c **** *   channel - The mux channel input to mark inactive
 481:Generated_Source\PSoC5/cyfitter_cfg.c **** *
 482:Generated_Source\PSoC5/cyfitter_cfg.c **** * Return:
 483:Generated_Source\PSoC5/cyfitter_cfg.c **** *   void
 484:Generated_Source\PSoC5/cyfitter_cfg.c **** *
 485:Generated_Source\PSoC5/cyfitter_cfg.c **** *******************************************************************************/
 486:Generated_Source\PSoC5/cyfitter_cfg.c **** void ADC_AMux_Unset(uint8 channel)
 487:Generated_Source\PSoC5/cyfitter_cfg.c **** {
 646              		.loc 1 487 0
 647              		.cfi_startproc
 648              		@ args = 0, pretend = 0, frame = 0
 649              		@ frame_needed = 0, uses_anonymous_args = 0
 650              		@ link register save eliminated.
 651              	.LVL52:
 488:Generated_Source\PSoC5/cyfitter_cfg.c **** 	if (channel < 2)
 652              		.loc 1 488 0
 653 0000 0128     		cmp	r0, #1
 654 0002 09D8     		bhi	.L48
 489:Generated_Source\PSoC5/cyfitter_cfg.c **** 	{
 490:Generated_Source\PSoC5/cyfitter_cfg.c **** 		*ADC_AMux__addrTable[channel] &= (uint8)~ADC_AMux__maskTable[channel];
 655              		.loc 1 490 0
 656 0004 054B     		ldr	r3, .L50
 657 0006 03EB8002 		add	r2, r3, r0, lsl #2
 658 000a 5269     		ldr	r2, [r2, #20]
 659 000c 1844     		add	r0, r0, r3
 660              	.LVL53:
 661 000e 017F     		ldrb	r1, [r0, #28]	@ zero_extendqisi2
 662 0010 1378     		ldrb	r3, [r2]	@ zero_extendqisi2
 663 0012 23EA0103 		bic	r3, r3, r1
 664 0016 1370     		strb	r3, [r2]
 665              	.L48:
 666 0018 7047     		bx	lr
 667              	.L51:
 668 001a 00BF     		.align	2
ARM GAS  C:\Users\ariky\AppData\Local\Temp\ccqJuICG.s 			page 22


 669              	.L50:
 670 001c 00000000 		.word	.LANCHOR0
 671              		.cfi_endproc
 672              	.LFE11:
 673              		.size	ADC_AMux_Unset, .-ADC_AMux_Unset
 674              		.section	.text.cyfitter_cfg,"ax",%progbits
 675              		.align	2
 676              		.global	cyfitter_cfg
 677              		.thumb
 678              		.thumb_func
 679              		.type	cyfitter_cfg, %function
 680              	cyfitter_cfg:
 681              	.LFB12:
 491:Generated_Source\PSoC5/cyfitter_cfg.c **** 	}
 492:Generated_Source\PSoC5/cyfitter_cfg.c **** }
 493:Generated_Source\PSoC5/cyfitter_cfg.c **** 
 494:Generated_Source\PSoC5/cyfitter_cfg.c **** 
 495:Generated_Source\PSoC5/cyfitter_cfg.c **** 
 496:Generated_Source\PSoC5/cyfitter_cfg.c **** /*******************************************************************************
 497:Generated_Source\PSoC5/cyfitter_cfg.c **** * Function Name: cyfitter_cfg
 498:Generated_Source\PSoC5/cyfitter_cfg.c **** ********************************************************************************
 499:Generated_Source\PSoC5/cyfitter_cfg.c **** * Summary:
 500:Generated_Source\PSoC5/cyfitter_cfg.c **** *  This function is called by the start-up code for the selected device. It
 501:Generated_Source\PSoC5/cyfitter_cfg.c **** *  performs all of the necessary device configuration based on the design
 502:Generated_Source\PSoC5/cyfitter_cfg.c **** *  settings.  This includes settings from the Design Wide Resources (DWR) such
 503:Generated_Source\PSoC5/cyfitter_cfg.c **** *  as Clocks and Pins as well as any component configuration that is necessary.
 504:Generated_Source\PSoC5/cyfitter_cfg.c **** *
 505:Generated_Source\PSoC5/cyfitter_cfg.c **** * Parameters:
 506:Generated_Source\PSoC5/cyfitter_cfg.c **** *   void
 507:Generated_Source\PSoC5/cyfitter_cfg.c **** *
 508:Generated_Source\PSoC5/cyfitter_cfg.c **** * Return:
 509:Generated_Source\PSoC5/cyfitter_cfg.c **** *   void
 510:Generated_Source\PSoC5/cyfitter_cfg.c **** *
 511:Generated_Source\PSoC5/cyfitter_cfg.c **** *******************************************************************************/
 512:Generated_Source\PSoC5/cyfitter_cfg.c **** 
 513:Generated_Source\PSoC5/cyfitter_cfg.c **** void cyfitter_cfg(void)
 514:Generated_Source\PSoC5/cyfitter_cfg.c **** {
 682              		.loc 1 514 0
 683              		.cfi_startproc
 684              		@ args = 0, pretend = 0, frame = 0
 685              		@ frame_needed = 0, uses_anonymous_args = 0
 686 0000 38B5     		push	{r3, r4, r5, lr}
 687              		.cfi_def_cfa_offset 16
 688              		.cfi_offset 3, -16
 689              		.cfi_offset 4, -12
 690              		.cfi_offset 5, -8
 691              		.cfi_offset 14, -4
 515:Generated_Source\PSoC5/cyfitter_cfg.c **** #ifdef CYGlobalIntDisable
 516:Generated_Source\PSoC5/cyfitter_cfg.c **** 	/* Disable interrupts by default. Let user enable if/when they want. */
 517:Generated_Source\PSoC5/cyfitter_cfg.c **** 	CYGlobalIntDisable
 692              		.loc 1 517 0
 693              		.syntax unified
 694              	@ 517 "Generated_Source\PSoC5\cyfitter_cfg.c" 1
 695 0002 72B6     		CPSID   i
 696              	@ 0 "" 2
 518:Generated_Source\PSoC5/cyfitter_cfg.c **** #endif
 519:Generated_Source\PSoC5/cyfitter_cfg.c **** 
ARM GAS  C:\Users\ariky\AppData\Local\Temp\ccqJuICG.s 			page 23


 520:Generated_Source\PSoC5/cyfitter_cfg.c **** 	/* Enable/Disable Debug functionality based on settings from System DWR */
 521:Generated_Source\PSoC5/cyfitter_cfg.c **** 	CY_SET_XTND_REG8((void CYFAR *)CYREG_MLOGIC_DEBUG, (CY_GET_XTND_REG8((void CYFAR *)CYREG_MLOGIC_DE
 697              		.loc 1 521 0
 698              		.thumb
 699              		.syntax unified
 700 0004 424A     		ldr	r2, .L58
 701 0006 1378     		ldrb	r3, [r2]	@ zero_extendqisi2
 702 0008 43F00403 		orr	r3, r3, #4
 703 000c 1370     		strb	r3, [r2]
 704              	.LVL54:
 705              	.LBB3:
 522:Generated_Source\PSoC5/cyfitter_cfg.c **** 
 523:Generated_Source\PSoC5/cyfitter_cfg.c **** 	{
 524:Generated_Source\PSoC5/cyfitter_cfg.c **** 
 525:Generated_Source\PSoC5/cyfitter_cfg.c **** 		CYPACKED typedef struct {
 526:Generated_Source\PSoC5/cyfitter_cfg.c **** 			void CYFAR *address;
 527:Generated_Source\PSoC5/cyfitter_cfg.c **** 			uint16 size;
 528:Generated_Source\PSoC5/cyfitter_cfg.c **** 		} CYPACKED_ATTR cfg_memset_t;
 529:Generated_Source\PSoC5/cyfitter_cfg.c **** 
 530:Generated_Source\PSoC5/cyfitter_cfg.c **** 
 531:Generated_Source\PSoC5/cyfitter_cfg.c **** 		CYPACKED typedef struct {
 532:Generated_Source\PSoC5/cyfitter_cfg.c **** 			void CYFAR *dest;
 533:Generated_Source\PSoC5/cyfitter_cfg.c **** 			const void CYFAR *src;
 534:Generated_Source\PSoC5/cyfitter_cfg.c **** 			uint16 size;
 535:Generated_Source\PSoC5/cyfitter_cfg.c **** 		} CYPACKED_ATTR cfg_memcpy_t;
 536:Generated_Source\PSoC5/cyfitter_cfg.c **** 
 537:Generated_Source\PSoC5/cyfitter_cfg.c **** 		static const cfg_memset_t CYCODE cfg_memset_list[] = {
 538:Generated_Source\PSoC5/cyfitter_cfg.c **** 			/* address, size */
 539:Generated_Source\PSoC5/cyfitter_cfg.c **** 			{(void CYFAR *)(CYREG_I2C_XCFG), 25u},
 540:Generated_Source\PSoC5/cyfitter_cfg.c **** 			{(void CYFAR *)(CYREG_PRT3_DR), 64u},
 541:Generated_Source\PSoC5/cyfitter_cfg.c **** 			{(void CYFAR *)(CYDEV_UCFG_B0_P0_U0_BASE), 4096u},
 542:Generated_Source\PSoC5/cyfitter_cfg.c **** 			{(void CYFAR *)(CYDEV_UCFG_B1_P2_U0_BASE), 2048u},
 543:Generated_Source\PSoC5/cyfitter_cfg.c **** 			{(void CYFAR *)(CYDEV_UCFG_DSI0_BASE), 2560u},
 544:Generated_Source\PSoC5/cyfitter_cfg.c **** 			{(void CYFAR *)(CYDEV_UCFG_DSI12_BASE), 512u},
 545:Generated_Source\PSoC5/cyfitter_cfg.c **** 			{(void CYFAR *)(CYREG_BCTL0_MDCLK_EN), 32u},
 546:Generated_Source\PSoC5/cyfitter_cfg.c **** 		};
 547:Generated_Source\PSoC5/cyfitter_cfg.c **** 
 548:Generated_Source\PSoC5/cyfitter_cfg.c **** 		static const cfg_memcpy_t CYCODE cfg_memcpy_list [] = {
 549:Generated_Source\PSoC5/cyfitter_cfg.c **** 			/* dest, src, size */
 550:Generated_Source\PSoC5/cyfitter_cfg.c **** 			{(void CYFAR *)(CYDEV_PRTDSI_PRT12_BASE), BS_IOPORT_7_VAL, 6u},
 551:Generated_Source\PSoC5/cyfitter_cfg.c **** 		};
 552:Generated_Source\PSoC5/cyfitter_cfg.c **** 
 553:Generated_Source\PSoC5/cyfitter_cfg.c **** 		uint8 CYDATA i;
 554:Generated_Source\PSoC5/cyfitter_cfg.c **** 
 555:Generated_Source\PSoC5/cyfitter_cfg.c **** 		/* Zero out critical memory blocks before beginning configuration */
 556:Generated_Source\PSoC5/cyfitter_cfg.c **** 		for (i = 0u; i < (sizeof(cfg_memset_list)/sizeof(cfg_memset_list[0])); i++)
 706              		.loc 1 556 0
 707 000e 0024     		movs	r4, #0
 708 0010 0BE0     		b	.L53
 709              	.LVL55:
 710              	.L54:
 711              	.LBB4:
 557:Generated_Source\PSoC5/cyfitter_cfg.c **** 		{
 558:Generated_Source\PSoC5/cyfitter_cfg.c **** 			const cfg_memset_t CYCODE * CYDATA ms = &cfg_memset_list[i];
 559:Generated_Source\PSoC5/cyfitter_cfg.c **** 			CYMEMZERO(ms->address, (size_t)(uint32)(ms->size));
 712              		.loc 1 559 0 discriminator 3
 713 0012 4048     		ldr	r0, .L58+4
ARM GAS  C:\Users\ariky\AppData\Local\Temp\ccqJuICG.s 			page 24


 714 0014 6300     		lsls	r3, r4, #1
 715 0016 1A19     		adds	r2, r3, r4
 716 0018 5100     		lsls	r1, r2, #1
 717 001a 0144     		add	r1, r1, r0
 718 001c 0A46     		mov	r2, r1
 719 001e 898C     		ldrh	r1, [r1, #36]
 720 0020 106A     		ldr	r0, [r2, #32]	@ unaligned
 721 0022 FFF7FEFF 		bl	CYMEMZERO
 722              	.LVL56:
 723              	.LBE4:
 556:Generated_Source\PSoC5/cyfitter_cfg.c **** 		{
 724              		.loc 1 556 0 discriminator 3
 725 0026 0134     		adds	r4, r4, #1
 726              	.LVL57:
 727 0028 E4B2     		uxtb	r4, r4
 728              	.LVL58:
 729              	.L53:
 556:Generated_Source\PSoC5/cyfitter_cfg.c **** 		{
 730              		.loc 1 556 0 is_stmt 0 discriminator 1
 731 002a 062C     		cmp	r4, #6
 732 002c F1D9     		bls	.L54
 733 002e 0024     		movs	r4, #0
 734              	.LVL59:
 735 0030 0BE0     		b	.L55
 736              	.LVL60:
 737              	.L56:
 738              	.LBB5:
 560:Generated_Source\PSoC5/cyfitter_cfg.c **** 		}
 561:Generated_Source\PSoC5/cyfitter_cfg.c **** 
 562:Generated_Source\PSoC5/cyfitter_cfg.c **** 		/* Copy device configuration data into registers */
 563:Generated_Source\PSoC5/cyfitter_cfg.c **** 		for (i = 0u; i < (sizeof(cfg_memcpy_list)/sizeof(cfg_memcpy_list[0])); i++)
 564:Generated_Source\PSoC5/cyfitter_cfg.c **** 		{
 565:Generated_Source\PSoC5/cyfitter_cfg.c **** 			const cfg_memcpy_t CYCODE * CYDATA mc = &cfg_memcpy_list[i];
 566:Generated_Source\PSoC5/cyfitter_cfg.c **** 			void * CYDATA destPtr = mc->dest;
 739              		.loc 1 566 0 is_stmt 1 discriminator 3
 740 0032 3849     		ldr	r1, .L58+4
 741 0034 A300     		lsls	r3, r4, #2
 742 0036 1819     		adds	r0, r3, r4
 743 0038 4200     		lsls	r2, r0, #1
 744 003a 8818     		adds	r0, r1, r2
 745              	.LVL61:
 567:Generated_Source\PSoC5/cyfitter_cfg.c **** 			const void * CYDATA srcPtr = mc->src;
 568:Generated_Source\PSoC5/cyfitter_cfg.c **** 			uint16 CYDATA numBytes = mc->size;
 569:Generated_Source\PSoC5/cyfitter_cfg.c **** 			CYCONFIGCPY(destPtr, srcPtr, numBytes);
 746              		.loc 1 569 0 discriminator 3
 747 003c 0622     		movs	r2, #6
 748 003e 016D     		ldr	r1, [r0, #80]	@ unaligned
 749              	.LVL62:
 750 0040 C06C     		ldr	r0, [r0, #76]	@ unaligned
 751              	.LVL63:
 752 0042 FFF7FEFF 		bl	CYCONFIGCPY
 753              	.LVL64:
 754              	.LBE5:
 563:Generated_Source\PSoC5/cyfitter_cfg.c **** 		{
 755              		.loc 1 563 0 discriminator 3
 756 0046 0134     		adds	r4, r4, #1
 757              	.LVL65:
ARM GAS  C:\Users\ariky\AppData\Local\Temp\ccqJuICG.s 			page 25


 758 0048 E4B2     		uxtb	r4, r4
 759              	.LVL66:
 760              	.L55:
 563:Generated_Source\PSoC5/cyfitter_cfg.c **** 		{
 761              		.loc 1 563 0 is_stmt 0 discriminator 1
 762 004a 002C     		cmp	r4, #0
 763 004c F1D0     		beq	.L56
 570:Generated_Source\PSoC5/cyfitter_cfg.c **** 		}
 571:Generated_Source\PSoC5/cyfitter_cfg.c **** 
 572:Generated_Source\PSoC5/cyfitter_cfg.c **** 		cfg_write_bytes32(cy_cfg_addr_table, cy_cfg_data_table);
 764              		.loc 1 572 0 is_stmt 1
 765 004e 3249     		ldr	r1, .L58+8
 766 0050 4FF09040 		mov	r0, #1207959552
 767 0054 FFF7FEFF 		bl	cfg_write_bytes32
 768              	.LVL67:
 573:Generated_Source\PSoC5/cyfitter_cfg.c **** 
 574:Generated_Source\PSoC5/cyfitter_cfg.c **** 		/* Perform normal device configuration. Order is not critical for these items. */
 575:Generated_Source\PSoC5/cyfitter_cfg.c **** 		CY_SET_XTND_REG8((void CYFAR *)(CYREG_DSM0_CR3), 0x0Au);
 769              		.loc 1 575 0
 770 0058 0A25     		movs	r5, #10
 771 005a 304B     		ldr	r3, .L58+12
 772 005c 1D70     		strb	r5, [r3]
 576:Generated_Source\PSoC5/cyfitter_cfg.c **** 		CY_SET_XTND_REG8((void CYFAR *)(CYREG_DSM0_CLK), 0x02u);
 773              		.loc 1 576 0
 774 005e 0222     		movs	r2, #2
 775 0060 03F52173 		add	r3, r3, #644
 776 0064 1A70     		strb	r2, [r3]
 577:Generated_Source\PSoC5/cyfitter_cfg.c **** 		CYMEMZERO((void CYFAR *)(CYREG_PHUB_CFGMEM0_CFG0), 4u);
 777              		.loc 1 577 0
 778 0066 0421     		movs	r1, #4
 779 0068 2D48     		ldr	r0, .L58+16
 780 006a FFF7FEFF 		bl	CYMEMZERO
 781              	.LVL68:
 578:Generated_Source\PSoC5/cyfitter_cfg.c **** 		CYMEMZERO((void CYFAR *)(CYREG_PHUB_CFGMEM1_CFG0), 4u);
 782              		.loc 1 578 0
 783 006e 0421     		movs	r1, #4
 784 0070 2C48     		ldr	r0, .L58+20
 785 0072 FFF7FEFF 		bl	CYMEMZERO
 786              	.LVL69:
 579:Generated_Source\PSoC5/cyfitter_cfg.c **** 		CYCONFIGCPY((void CYFAR *)(CYREG_PHUB_CFGMEM2_CFG0), (const void CYFAR *)(BS_PHUB_CFGMEM2_VAL), 4
 787              		.loc 1 579 0
 788 0076 0422     		movs	r2, #4
 789 0078 2B49     		ldr	r1, .L58+24
 790 007a 2C48     		ldr	r0, .L58+28
 791 007c FFF7FEFF 		bl	CYCONFIGCPY
 792              	.LVL70:
 580:Generated_Source\PSoC5/cyfitter_cfg.c **** 		CYCONFIGCPY((void CYFAR *)(CYREG_PHUB_CFGMEM3_CFG0), (const void CYFAR *)(BS_PHUB_CFGMEM3_VAL), 4
 793              		.loc 1 580 0
 794 0080 0422     		movs	r2, #4
 795 0082 2B49     		ldr	r1, .L58+32
 796 0084 2B48     		ldr	r0, .L58+36
 797 0086 FFF7FEFF 		bl	CYCONFIGCPY
 798              	.LVL71:
 581:Generated_Source\PSoC5/cyfitter_cfg.c **** 
 582:Generated_Source\PSoC5/cyfitter_cfg.c **** 		/* Enable digital routing */
 583:Generated_Source\PSoC5/cyfitter_cfg.c **** 		CY_SET_XTND_REG8((void CYFAR *)CYREG_BCTL0_BANK_CTL, CY_GET_XTND_REG8((void CYFAR *)CYREG_BCTL0_B
 799              		.loc 1 583 0
ARM GAS  C:\Users\ariky\AppData\Local\Temp\ccqJuICG.s 			page 26


 800 008a 2B4A     		ldr	r2, .L58+40
 801 008c 1378     		ldrb	r3, [r2]	@ zero_extendqisi2
 802 008e 43F00203 		orr	r3, r3, #2
 803 0092 1370     		strb	r3, [r2]
 584:Generated_Source\PSoC5/cyfitter_cfg.c **** 		CY_SET_XTND_REG8((void CYFAR *)CYREG_BCTL1_BANK_CTL, CY_GET_XTND_REG8((void CYFAR *)CYREG_BCTL1_B
 804              		.loc 1 584 0
 805 0094 1032     		adds	r2, r2, #16
 806 0096 1378     		ldrb	r3, [r2]	@ zero_extendqisi2
 807 0098 43F00203 		orr	r3, r3, #2
 808 009c 1370     		strb	r3, [r2]
 585:Generated_Source\PSoC5/cyfitter_cfg.c **** 
 586:Generated_Source\PSoC5/cyfitter_cfg.c **** 		/* Enable UDB array */
 587:Generated_Source\PSoC5/cyfitter_cfg.c **** 		CY_SET_XTND_REG8((void CYFAR *)CYREG_PM_ACT_CFG0, CY_GET_XTND_REG8((void CYFAR *)CYREG_PM_ACT_CFG
 809              		.loc 1 587 0
 810 009e 274C     		ldr	r4, .L58+44
 811              	.LVL72:
 812 00a0 2378     		ldrb	r3, [r4]	@ zero_extendqisi2
 813 00a2 43F04003 		orr	r3, r3, #64
 814 00a6 2370     		strb	r3, [r4]
 588:Generated_Source\PSoC5/cyfitter_cfg.c **** 		CY_SET_XTND_REG8((void CYFAR *)CYREG_PM_AVAIL_CR2, CY_GET_XTND_REG8((void CYFAR *)CYREG_PM_AVAIL_
 815              		.loc 1 588 0
 816 00a8 A2F58632 		sub	r2, r2, #68608
 817 00ac 513A     		subs	r2, r2, #81
 818 00ae 1378     		ldrb	r3, [r2]	@ zero_extendqisi2
 819 00b0 43F01003 		orr	r3, r3, #16
 820 00b4 1370     		strb	r3, [r2]
 821              	.LBE3:
 589:Generated_Source\PSoC5/cyfitter_cfg.c **** 	}
 590:Generated_Source\PSoC5/cyfitter_cfg.c **** 
 591:Generated_Source\PSoC5/cyfitter_cfg.c **** 
 592:Generated_Source\PSoC5/cyfitter_cfg.c **** 	/* Perform second pass device configuration. These items must be configured in specific order afte
 593:Generated_Source\PSoC5/cyfitter_cfg.c **** 	CYCONFIGCPY((void CYFAR *)(CYREG_PRT0_DM0), (const void CYFAR *)(BS_IOPINS0_0_VAL), 8u);
 822              		.loc 1 593 0
 823 00b6 0822     		movs	r2, #8
 824 00b8 2149     		ldr	r1, .L58+48
 825 00ba 2248     		ldr	r0, .L58+52
 826 00bc FFF7FEFF 		bl	CYCONFIGCPY
 827              	.LVL73:
 594:Generated_Source\PSoC5/cyfitter_cfg.c **** 	CYCONFIGCPY((void CYFAR *)(CYREG_PRT12_DR), (const void CYFAR *)(BS_IOPINS0_7_VAL), 10u);
 828              		.loc 1 594 0
 829 00c0 2A46     		mov	r2, r5
 830 00c2 2149     		ldr	r1, .L58+56
 831 00c4 2148     		ldr	r0, .L58+60
 832 00c6 FFF7FEFF 		bl	CYCONFIGCPY
 833              	.LVL74:
 595:Generated_Source\PSoC5/cyfitter_cfg.c **** 	CYCONFIGCPY((void CYFAR *)(CYREG_PRT15_DR), (const void CYFAR *)(BS_IOPINS0_8_VAL), 10u);
 834              		.loc 1 595 0
 835 00ca 2A46     		mov	r2, r5
 836 00cc 2049     		ldr	r1, .L58+64
 837 00ce 2148     		ldr	r0, .L58+68
 838 00d0 FFF7FEFF 		bl	CYCONFIGCPY
 839              	.LVL75:
 596:Generated_Source\PSoC5/cyfitter_cfg.c **** 	CYCONFIGCPY((void CYFAR *)(CYREG_PRT1_DM0), (const void CYFAR *)(BS_IOPINS0_1_VAL), 8u);
 840              		.loc 1 596 0
 841 00d4 0822     		movs	r2, #8
 842 00d6 2049     		ldr	r1, .L58+72
 843 00d8 2048     		ldr	r0, .L58+76
ARM GAS  C:\Users\ariky\AppData\Local\Temp\ccqJuICG.s 			page 27


 844 00da FFF7FEFF 		bl	CYCONFIGCPY
 845              	.LVL76:
 597:Generated_Source\PSoC5/cyfitter_cfg.c **** 	CYCONFIGCPY((void CYFAR *)(CYREG_PRT2_DM0), (const void CYFAR *)(BS_IOPINS0_2_VAL), 8u);
 846              		.loc 1 597 0
 847 00de 0822     		movs	r2, #8
 848 00e0 1F49     		ldr	r1, .L58+80
 849 00e2 2048     		ldr	r0, .L58+84
 850 00e4 FFF7FEFF 		bl	CYCONFIGCPY
 851              	.LVL77:
 598:Generated_Source\PSoC5/cyfitter_cfg.c **** 	/* Switch Boost to the precision bandgap reference from its internal reference */
 599:Generated_Source\PSoC5/cyfitter_cfg.c **** 	CY_SET_REG8((void CYXDATA *)CYREG_BOOST_CR2, (CY_GET_REG8((void CYXDATA *)CYREG_BOOST_CR2) | 0x08u
 852              		.loc 1 599 0
 853 00e8 1F4A     		ldr	r2, .L58+88
 854 00ea 1378     		ldrb	r3, [r2]	@ zero_extendqisi2
 855 00ec 43F00803 		orr	r3, r3, #8
 856 00f0 1370     		strb	r3, [r2]
 600:Generated_Source\PSoC5/cyfitter_cfg.c **** 
 601:Generated_Source\PSoC5/cyfitter_cfg.c **** 	/* Set Flash Cycles based on max possible frequency in case a glitch occurs during ClockSetup(). *
 602:Generated_Source\PSoC5/cyfitter_cfg.c **** 	CY_SET_XTND_REG8((void CYFAR *)(CYREG_CACHE_CC_CTL), (((CYDEV_INSTRUCT_CACHE_ENABLED) != 0) ? 0x61
 857              		.loc 1 602 0
 858 00f2 1E4D     		ldr	r5, .L58+92
 859 00f4 6123     		movs	r3, #97
 860 00f6 2B70     		strb	r3, [r5]
 603:Generated_Source\PSoC5/cyfitter_cfg.c **** 	/* Setup clocks based on selections from Clock DWR */
 604:Generated_Source\PSoC5/cyfitter_cfg.c **** 	ClockSetup();
 861              		.loc 1 604 0
 862 00f8 FFF7FEFF 		bl	ClockSetup
 863              	.LVL78:
 605:Generated_Source\PSoC5/cyfitter_cfg.c **** 	/* Set Flash Cycles based on newly configured 24.00MHz Bus Clock. */
 606:Generated_Source\PSoC5/cyfitter_cfg.c **** 	CY_SET_XTND_REG8((void CYFAR *)(CYREG_CACHE_CC_CTL), (((CYDEV_INSTRUCT_CACHE_ENABLED) != 0) ? 0x81
 864              		.loc 1 606 0
 865 00fc 8123     		movs	r3, #129
 866 00fe 2B70     		strb	r3, [r5]
 607:Generated_Source\PSoC5/cyfitter_cfg.c **** 
 608:Generated_Source\PSoC5/cyfitter_cfg.c **** 	/* Perform basic analog initialization to defaults */
 609:Generated_Source\PSoC5/cyfitter_cfg.c **** 	AnalogSetDefault();
 867              		.loc 1 609 0
 868 0100 FFF7FEFF 		bl	AnalogSetDefault
 869              	.LVL79:
 610:Generated_Source\PSoC5/cyfitter_cfg.c **** 
 611:Generated_Source\PSoC5/cyfitter_cfg.c **** 	/* Configure alternate active mode */
 612:Generated_Source\PSoC5/cyfitter_cfg.c **** 	CYCONFIGCPY((void CYFAR *)CYDEV_PM_STBY_BASE, (const void CYFAR *)CYDEV_PM_ACT_BASE, 14u);
 870              		.loc 1 612 0
 871 0104 0E22     		movs	r2, #14
 872 0106 2146     		mov	r1, r4
 873 0108 1948     		ldr	r0, .L58+96
 874 010a FFF7FEFF 		bl	CYCONFIGCPY
 875              	.LVL80:
 876 010e 38BD     		pop	{r3, r4, r5, pc}
 877              	.L59:
 878              		.align	2
 879              	.L58:
 880 0110 E8460040 		.word	1073759976
 881 0114 00000000 		.word	.LANCHOR0
 882 0118 7C000048 		.word	1207959676
 883 011c 83580040 		.word	1073764483
 884 0120 00760040 		.word	1073772032
ARM GAS  C:\Users\ariky\AppData\Local\Temp\ccqJuICG.s 			page 28


 885 0124 08760040 		.word	1073772040
 886 0128 94020048 		.word	1207960212
 887 012c 10760040 		.word	1073772048
 888 0130 98020048 		.word	1207960216
 889 0134 18760040 		.word	1073772056
 890 0138 03500140 		.word	1073827843
 891 013c A0430040 		.word	1073759136
 892 0140 58020048 		.word	1207960152
 893 0144 02510040 		.word	1073762562
 894 0148 60020048 		.word	1207960160
 895 014c C0510040 		.word	1073762752
 896 0150 6C020048 		.word	1207960172
 897 0154 F0510040 		.word	1073762800
 898 0158 78020048 		.word	1207960184
 899 015c 12510040 		.word	1073762578
 900 0160 80020048 		.word	1207960192
 901 0164 22510040 		.word	1073762594
 902 0168 22430040 		.word	1073759010
 903 016c 00480040 		.word	1073760256
 904 0170 B0430040 		.word	1073759152
 905              		.cfi_endproc
 906              	.LFE12:
 907              		.size	cyfitter_cfg, .-cyfitter_cfg
 908              		.global	ADC_AMux__maskTable
 909              		.global	ADC_AMux__addrTable
 910              		.global	AMux__maskTable
 911              		.global	AMux__addrTable
 912              		.section	.rodata
 913              		.align	2
 914              		.set	.LANCHOR0,. + 0
 915              		.type	AMux__addrTable, %object
 916              		.size	AMux__addrTable, 16
 917              	AMux__addrTable:
 918 0000 1D510040 		.word	1073762589
 919 0004 005B0040 		.word	1073765120
 920 0008 1D510040 		.word	1073762589
 921 000c 005B0040 		.word	1073765120
 922              		.type	AMux__maskTable, %object
 923              		.size	AMux__maskTable, 4
 924              	AMux__maskTable:
 925 0010 40       		.byte	64
 926 0011 04       		.byte	4
 927 0012 80       		.byte	-128
 928 0013 08       		.byte	8
 929              		.type	ADC_AMux__addrTable, %object
 930              		.size	ADC_AMux__addrTable, 8
 931              	ADC_AMux__addrTable:
 932 0014 035B0040 		.word	1073765123
 933 0018 24430040 		.word	1073759012
 934              		.type	ADC_AMux__maskTable, %object
 935              		.size	ADC_AMux__maskTable, 2
 936              	ADC_AMux__maskTable:
 937 001c 40       		.byte	64
 938 001d 00       		.byte	0
 939 001e 0000     		.space	2
 940              		.type	cfg_memset_list.5048, %object
 941              		.size	cfg_memset_list.5048, 42
ARM GAS  C:\Users\ariky\AppData\Local\Temp\ccqJuICG.s 			page 29


 942              	cfg_memset_list.5048:
 943 0020 C8490040 		.word	1073760712
 944 0024 1900     		.short	25
 945 0026 30510040 		.4byte	1073762608
 946 002a 4000     		.short	64
 947 002c 00000140 		.word	1073807360
 948 0030 0010     		.short	4096
 949 0032 00140140 		.4byte	1073812480
 950 0036 0008     		.short	2048
 951 0038 00400140 		.word	1073823744
 952 003c 000A     		.short	2560
 953 003e 004C0140 		.4byte	1073826816
 954 0042 0002     		.short	512
 955 0044 00500140 		.word	1073827840
 956 0048 2000     		.short	32
 957 004a 0000     		.space	2
 958              		.type	cfg_memcpy_list.5049, %object
 959              		.size	cfg_memcpy_list.5049, 10
 960              	cfg_memcpy_list.5049:
 961 004c 60520040 		.word	1073762912
 962 0050 50020048 		.word	1207960144
 963 0054 0600     		.short	6
 964              		.text
 965              	.Letext0:
 966              		.file 2 "c:\\program files (x86)\\cypress\\psoc creator\\4.2\\psoc creator\\import\\gnu\\arm\\5.4.
 967              		.file 3 "Generated_Source\\PSoC5\\cytypes.h"
 968              		.file 4 "Generated_Source\\PSoC5\\CyLib.h"