ARM GAS  C:\Users\ariky\AppData\Local\Temp\ccEDxqgb.s 			page 1


   1              		.syntax unified
   2              		.cpu cortex-m3
   3              		.fpu softvfp
   4              		.eabi_attribute 20, 1
   5              		.eabi_attribute 21, 1
   6              		.eabi_attribute 23, 3
   7              		.eabi_attribute 24, 1
   8              		.eabi_attribute 25, 1
   9              		.eabi_attribute 26, 1
  10              		.eabi_attribute 30, 1
  11              		.eabi_attribute 34, 1
  12              		.eabi_attribute 18, 4
  13              		.thumb
  14              		.syntax unified
  15              		.file	"main.c"
  16              		.text
  17              	.Ltext0:
  18              		.cfi_sections	.debug_frame
  19              		.section	.text.end,"ax",%progbits
  20              		.align	2
  21              		.global	end
  22              		.thumb
  23              		.thumb_func
  24              		.type	end, %function
  25              	end:
  26              	.LFB63:
  27              		.file 1 "main.c"
   1:main.c        **** /* ========================================
   2:main.c        ****  *
   3:main.c        ****  * Copyright YOUR COMPANY, THE YEAR
   4:main.c        ****  * All Rights Reserved
   5:main.c        ****  * UNPUBLISHED, LICENSED SOFTWARE.
   6:main.c        ****  *
   7:main.c        ****  * CONFIDENTIAL AND PROPRIETARY INFORMATION
   8:main.c        ****  * WHICH IS THE PROPERTY OF your company.
   9:main.c        ****  *
  10:main.c        ****  * ========================================
  11:main.c        **** */
  12:main.c        **** #include "project.h"
  13:main.c        **** #define TRUE 1
  14:main.c        **** #define FALSE 0
  15:main.c        **** #define RAM_LENGTH 64
  16:main.c        **** int flag1=TRUE;
  17:main.c        **** int flag2=TRUE;
  18:main.c        **** int src1Flag1=FALSE;
  19:main.c        **** int src1Flag2=FALSE;
  20:main.c        **** int src2Flag1=FALSE;
  21:main.c        **** int src2Flag2=FALSE;
  22:main.c        **** int timeFlag=FALSE;
  23:main.c        **** /* USB device number. */
  24:main.c        **** #define USBFS_DEVICE  (0u)
  25:main.c        **** 
  26:main.c        **** /* Active endpoints of USB device. */
  27:main.c        **** #define IN_EP_NUM     (1u)
  28:main.c        **** #define IN2_EP_NUM    (2u)
  29:main.c        **** #define OUT_EP_NUM    (3u)
  30:main.c        **** 
ARM GAS  C:\Users\ariky\AppData\Local\Temp\ccEDxqgb.s 			page 2


  31:main.c        **** /* Size of SRAM buffer to store endpoint data. */
  32:main.c        **** #define BUFFER_SIZE   (64u)
  33:main.c        **** 
  34:main.c        **** #define RD_BUFFER_SIZE        (2u)
  35:main.c        **** #define WR_BUFFER_SIZE        (1u)
  36:main.c        **** 
  37:main.c        **** uint8 buffer[BUFFER_SIZE];
  38:main.c        **** 
  39:main.c        **** CY_ISR(end){
  28              		.loc 1 39 0
  29              		.cfi_startproc
  30              		@ args = 0, pretend = 0, frame = 0
  31              		@ frame_needed = 0, uses_anonymous_args = 0
  32              		@ link register save eliminated.
  40:main.c        ****     if (flag1){    
  33              		.loc 1 40 0
  34 0000 094B     		ldr	r3, .L4
  35 0002 1B68     		ldr	r3, [r3]
  36 0004 3BB1     		cbz	r3, .L2
  41:main.c        ****         src1Flag1=TRUE; //set the secondary array low and primary high when DMA is done
  37              		.loc 1 41 0
  38 0006 094A     		ldr	r2, .L4+4
  39 0008 0123     		movs	r3, #1
  40 000a 1360     		str	r3, [r2]
  42:main.c        ****         src1Flag2=FALSE;
  41              		.loc 1 42 0
  42 000c 0023     		movs	r3, #0
  43 000e 5360     		str	r3, [r2, #4]
  43:main.c        ****         flag1=FALSE;
  44              		.loc 1 43 0
  45 0010 054A     		ldr	r2, .L4
  46 0012 1360     		str	r3, [r2]
  47 0014 7047     		bx	lr
  48              	.L2:
  44:main.c        ****     }
  45:main.c        ****     else{
  46:main.c        ****         src1Flag2=TRUE;
  49              		.loc 1 46 0
  50 0016 054A     		ldr	r2, .L4+4
  51 0018 0123     		movs	r3, #1
  52 001a 5360     		str	r3, [r2, #4]
  47:main.c        ****         src1Flag1=FALSE;
  53              		.loc 1 47 0
  54 001c 0021     		movs	r1, #0
  55 001e 1160     		str	r1, [r2]
  48:main.c        ****         flag1=TRUE;
  56              		.loc 1 48 0
  57 0020 014A     		ldr	r2, .L4
  58 0022 1360     		str	r3, [r2]
  59 0024 7047     		bx	lr
  60              	.L5:
  61 0026 00BF     		.align	2
  62              	.L4:
  63 0028 00000000 		.word	.LANCHOR0
  64 002c 00000000 		.word	.LANCHOR1
  65              		.cfi_endproc
  66              	.LFE63:
ARM GAS  C:\Users\ariky\AppData\Local\Temp\ccEDxqgb.s 			page 3


  67              		.size	end, .-end
  68              		.section	.text.end1,"ax",%progbits
  69              		.align	2
  70              		.global	end1
  71              		.thumb
  72              		.thumb_func
  73              		.type	end1, %function
  74              	end1:
  75              	.LFB64:
  49:main.c        ****     }
  50:main.c        **** }
  51:main.c        **** CY_ISR(end1){
  76              		.loc 1 51 0
  77              		.cfi_startproc
  78              		@ args = 0, pretend = 0, frame = 0
  79              		@ frame_needed = 0, uses_anonymous_args = 0
  80              		@ link register save eliminated.
  52:main.c        ****     if (flag2){
  81              		.loc 1 52 0
  82 0000 094B     		ldr	r3, .L9
  83 0002 5B68     		ldr	r3, [r3, #4]
  84 0004 3BB1     		cbz	r3, .L7
  53:main.c        ****         src2Flag1=TRUE;
  85              		.loc 1 53 0
  86 0006 094A     		ldr	r2, .L9+4
  87 0008 0123     		movs	r3, #1
  88 000a 9360     		str	r3, [r2, #8]
  54:main.c        ****         src2Flag2=FALSE;
  89              		.loc 1 54 0
  90 000c 0023     		movs	r3, #0
  91 000e D360     		str	r3, [r2, #12]
  55:main.c        ****         flag2=FALSE;
  92              		.loc 1 55 0
  93 0010 054A     		ldr	r2, .L9
  94 0012 5360     		str	r3, [r2, #4]
  95 0014 7047     		bx	lr
  96              	.L7:
  56:main.c        ****     }
  57:main.c        ****     else{
  58:main.c        ****         src2Flag2=TRUE;
  97              		.loc 1 58 0
  98 0016 054A     		ldr	r2, .L9+4
  99 0018 0123     		movs	r3, #1
 100 001a D360     		str	r3, [r2, #12]
  59:main.c        ****         src2Flag1=FALSE;
 101              		.loc 1 59 0
 102 001c 0021     		movs	r1, #0
 103 001e 9160     		str	r1, [r2, #8]
  60:main.c        ****         flag2=TRUE;
 104              		.loc 1 60 0
 105 0020 014A     		ldr	r2, .L9
 106 0022 5360     		str	r3, [r2, #4]
 107 0024 7047     		bx	lr
 108              	.L10:
 109 0026 00BF     		.align	2
 110              	.L9:
 111 0028 00000000 		.word	.LANCHOR0
ARM GAS  C:\Users\ariky\AppData\Local\Temp\ccEDxqgb.s 			page 4


 112 002c 00000000 		.word	.LANCHOR1
 113              		.cfi_endproc
 114              	.LFE64:
 115              		.size	end1, .-end1
 116              		.section	.text.time,"ax",%progbits
 117              		.align	2
 118              		.global	time
 119              		.thumb
 120              		.thumb_func
 121              		.type	time, %function
 122              	time:
 123              	.LFB65:
  61:main.c        ****     }
  62:main.c        ****         
  63:main.c        **** }
  64:main.c        **** CY_ISR(time){
 124              		.loc 1 64 0
 125              		.cfi_startproc
 126              		@ args = 0, pretend = 0, frame = 0
 127              		@ frame_needed = 0, uses_anonymous_args = 0
 128 0000 08B5     		push	{r3, lr}
 129              		.cfi_def_cfa_offset 8
 130              		.cfi_offset 3, -8
 131              		.cfi_offset 14, -4
  65:main.c        ****     timeFlag=TRUE;
 132              		.loc 1 65 0
 133 0002 0120     		movs	r0, #1
 134 0004 034B     		ldr	r3, .L13
 135 0006 1861     		str	r0, [r3, #16]
  66:main.c        ****     LCD_ClearDisplay();
 136              		.loc 1 66 0
 137 0008 FFF7FEFF 		bl	LCD_WriteControl
 138              	.LVL0:
  67:main.c        ****     Timer_ReadStatusRegister();
 139              		.loc 1 67 0
 140 000c FFF7FEFF 		bl	Timer_ReadStatusRegister
 141              	.LVL1:
 142 0010 08BD     		pop	{r3, pc}
 143              	.L14:
 144 0012 00BF     		.align	2
 145              	.L13:
 146 0014 00000000 		.word	.LANCHOR1
 147              		.cfi_endproc
 148              	.LFE65:
 149              		.size	time, .-time
 150              		.section	.text.main,"ax",%progbits
 151              		.align	2
 152              		.global	main
 153              		.thumb
 154              		.thumb_func
 155              		.type	main, %function
 156              	main:
 157              	.LFB66:
  68:main.c        **** }
  69:main.c        **** 
  70:main.c        **** int main(void)
  71:main.c        **** {
ARM GAS  C:\Users\ariky\AppData\Local\Temp\ccEDxqgb.s 			page 5


 158              		.loc 1 71 0
 159              		.cfi_startproc
 160              		@ args = 0, pretend = 0, frame = 264
 161              		@ frame_needed = 0, uses_anonymous_args = 0
 162 0000 70B5     		push	{r4, r5, r6, lr}
 163              		.cfi_def_cfa_offset 16
 164              		.cfi_offset 4, -16
 165              		.cfi_offset 5, -12
 166              		.cfi_offset 6, -8
 167              		.cfi_offset 14, -4
 168 0002 C2B0     		sub	sp, sp, #264
 169              		.cfi_def_cfa_offset 280
  72:main.c        ****     CyGlobalIntEnable; /* Enable global interrupts. */
 170              		.loc 1 72 0
 171              		.syntax unified
 172              	@ 72 "main.c" 1
 173 0004 62B6     		CPSIE   i
 174              	@ 0 "" 2
  73:main.c        ****     ADC_Start();
 175              		.loc 1 73 0
 176              		.thumb
 177              		.syntax unified
 178 0006 FFF7FEFF 		bl	ADC_Start
 179              	.LVL2:
  74:main.c        ****     ADC_StartConvert();
 180              		.loc 1 74 0
 181 000a FFF7FEFF 		bl	ADC_StartConvert
 182              	.LVL3:
  75:main.c        ****     ADC_SAR_Start();
 183              		.loc 1 75 0
 184 000e FFF7FEFF 		bl	ADC_SAR_Start
 185              	.LVL4:
  76:main.c        ****     ADC_SAR_StartConvert();
 186              		.loc 1 76 0
 187 0012 FFF7FEFF 		bl	ADC_SAR_StartConvert
 188              	.LVL5:
  77:main.c        ****     ADC_SAR_1_Start();
 189              		.loc 1 77 0
 190 0016 FFF7FEFF 		bl	ADC_SAR_1_Start
 191              	.LVL6:
  78:main.c        ****     ADC_SAR_1_StartConvert();
 192              		.loc 1 78 0
 193 001a FFF7FEFF 		bl	ADC_SAR_1_StartConvert
 194              	.LVL7:
  79:main.c        ****     
  80:main.c        ****     isr_StartEx(end);
 195              		.loc 1 80 0
 196 001e 9C48     		ldr	r0, .L38
 197 0020 FFF7FEFF 		bl	isr_StartEx
 198              	.LVL8:
  81:main.c        ****     isr_1_StartEx(end1);
 199              		.loc 1 81 0
 200 0024 9B48     		ldr	r0, .L38+4
 201 0026 FFF7FEFF 		bl	isr_1_StartEx
 202              	.LVL9:
  82:main.c        ****     Onems_StartEx(time);
 203              		.loc 1 82 0
ARM GAS  C:\Users\ariky\AppData\Local\Temp\ccEDxqgb.s 			page 6


 204 002a 9B48     		ldr	r0, .L38+8
 205 002c FFF7FEFF 		bl	Onems_StartEx
 206              	.LVL10:
  83:main.c        ****     
  84:main.c        ****     LCD_Start();
 207              		.loc 1 84 0
 208 0030 FFF7FEFF 		bl	LCD_Start
 209              	.LVL11:
  85:main.c        ****     Timer_Start();
 210              		.loc 1 85 0
 211 0034 FFF7FEFF 		bl	Timer_Start
 212              	.LVL12:
  86:main.c        ****     AMux_Init();
 213              		.loc 1 86 0
 214 0038 FFF7FEFF 		bl	AMux_Start
 215              	.LVL13:
  87:main.c        ****     
  88:main.c        ****     uint8 src1RAM1[BUFFER_SIZE];
  89:main.c        ****     uint8 src1RAM2[BUFFER_SIZE];
  90:main.c        ****     uint8 src2RAM1[BUFFER_SIZE];
  91:main.c        ****     uint8 src2RAM2[BUFFER_SIZE];
  92:main.c        ****     int i=0;
  93:main.c        ****     int potFlag=TRUE;
  94:main.c        ****     //clear the arrays with 0's
  95:main.c        ****     for (i = 0; i < RAM_LENGTH; i++) {
 216              		.loc 1 95 0
 217 003c 0023     		movs	r3, #0
 218 003e 0BE0     		b	.L16
 219              	.LVL14:
 220              	.L17:
  96:main.c        ****         src1RAM1[i] = 0;
 221              		.loc 1 96 0 discriminator 3
 222 0040 42AA     		add	r2, sp, #264
 223 0042 D118     		adds	r1, r2, r3
 224 0044 0022     		movs	r2, #0
 225 0046 01F8402C 		strb	r2, [r1, #-64]
  97:main.c        ****         src1RAM2[i] = 0;
 226              		.loc 1 97 0 discriminator 3
 227 004a 01F8802C 		strb	r2, [r1, #-128]
  98:main.c        ****         src2RAM1[i] = 0;
 228              		.loc 1 98 0 discriminator 3
 229 004e 01F8C02C 		strb	r2, [r1, #-192]
  99:main.c        ****         src2RAM2[i] = 0;
 230              		.loc 1 99 0 discriminator 3
 231 0052 02A9     		add	r1, sp, #8
 232 0054 CA54     		strb	r2, [r1, r3]
  95:main.c        ****         src1RAM1[i] = 0;
 233              		.loc 1 95 0 discriminator 3
 234 0056 0133     		adds	r3, r3, #1
 235              	.LVL15:
 236              	.L16:
  95:main.c        ****         src1RAM1[i] = 0;
 237              		.loc 1 95 0 is_stmt 0 discriminator 1
 238 0058 3F2B     		cmp	r3, #63
 239 005a F1DD     		ble	.L17
 100:main.c        ****     }
 101:main.c        **** 
ARM GAS  C:\Users\ariky\AppData\Local\Temp\ccEDxqgb.s 			page 7


 102:main.c        ****     /* Defines for DMA */
 103:main.c        ****     #define DMA_BYTES_PER_BURST 1
 104:main.c        ****     #define DMA_REQUEST_PER_BURST 1
 105:main.c        ****     #define DMA_SRC_BASE (CYDEV_PERIPH_BASE)
 106:main.c        ****     #define DMA_DST_BASE (CYDEV_SRAM_BASE)
 107:main.c        **** 
 108:main.c        ****     /* Variable declarations for DMA */
 109:main.c        ****     /* Move these variable declarations to the top of the function */
 110:main.c        ****     uint8 DMA_Chan;
 111:main.c        ****     uint8 DMA_TD[2];
 112:main.c        **** 
 113:main.c        ****     /* DMA Configuration for DMA */
 114:main.c        ****     DMA_Chan = DMA_DmaInitialize(DMA_BYTES_PER_BURST, DMA_REQUEST_PER_BURST, 
 240              		.loc 1 114 0 is_stmt 1
 241 005c 41F6FF73 		movw	r3, #8191
 242              	.LVL16:
 243 0060 4FF48042 		mov	r2, #16384
 244 0064 0121     		movs	r1, #1
 245 0066 0846     		mov	r0, r1
 246 0068 FFF7FEFF 		bl	DMA_DmaInitialize
 247              	.LVL17:
 248 006c 0646     		mov	r6, r0
 249              	.LVL18:
 115:main.c        ****         HI16(DMA_SRC_BASE), HI16(DMA_DST_BASE));
 116:main.c        **** 
 117:main.c        ****     DMA_TD[0] = CyDmaTdAllocate();
 250              		.loc 1 117 0
 251 006e FFF7FEFF 		bl	CyDmaTdAllocate
 252              	.LVL19:
 253 0072 0446     		mov	r4, r0
 118:main.c        ****     DMA_TD[1] = CyDmaTdAllocate();
 254              		.loc 1 118 0
 255 0074 FFF7FEFF 		bl	CyDmaTdAllocate
 256              	.LVL20:
 257 0078 0546     		mov	r5, r0
 119:main.c        ****     
 120:main.c        ****     CyDmaTdSetConfiguration(DMA_TD[0], RAM_LENGTH, DMA_TD[1], DMA__TD_TERMOUT_EN  | CY_DMA_TD_INC_D
 258              		.loc 1 120 0
 259 007a 0623     		movs	r3, #6
 260 007c 0246     		mov	r2, r0
 261 007e 4021     		movs	r1, #64
 262 0080 2046     		mov	r0, r4
 263 0082 FFF7FEFF 		bl	CyDmaTdSetConfiguration
 264              	.LVL21:
 121:main.c        ****     CyDmaTdSetConfiguration(DMA_TD[1], RAM_LENGTH, DMA_TD[0], DMA__TD_TERMOUT_EN  | CY_DMA_TD_INC_D
 265              		.loc 1 121 0
 266 0086 0623     		movs	r3, #6
 267 0088 2246     		mov	r2, r4
 268 008a 4021     		movs	r1, #64
 269 008c 2846     		mov	r0, r5
 270 008e FFF7FEFF 		bl	CyDmaTdSetConfiguration
 271              	.LVL22:
 122:main.c        ****     
 123:main.c        ****     CyDmaTdSetAddress(DMA_TD[0], LO16((uint32)ADC_SAR_SAR_WRK0_PTR), LO16((uint32)src1RAM1));
 272              		.loc 1 123 0
 273 0092 32AA     		add	r2, sp, #200
 274 0094 92B2     		uxth	r2, r2
ARM GAS  C:\Users\ariky\AppData\Local\Temp\ccEDxqgb.s 			page 8


 275 0096 45F6A031 		movw	r1, #23456
 276 009a 2046     		mov	r0, r4
 277 009c FFF7FEFF 		bl	CyDmaTdSetAddress
 278              	.LVL23:
 124:main.c        ****     CyDmaTdSetAddress(DMA_TD[1], LO16((uint32)ADC_SAR_SAR_WRK0_PTR), LO16((uint32)src1RAM2));
 279              		.loc 1 124 0
 280 00a0 22AA     		add	r2, sp, #136
 281 00a2 92B2     		uxth	r2, r2
 282 00a4 45F6A031 		movw	r1, #23456
 283 00a8 2846     		mov	r0, r5
 284 00aa FFF7FEFF 		bl	CyDmaTdSetAddress
 285              	.LVL24:
 125:main.c        ****     
 126:main.c        ****     CyDmaChSetInitialTd(DMA_Chan, DMA_TD[0]);
 286              		.loc 1 126 0
 287 00ae 2146     		mov	r1, r4
 288 00b0 3046     		mov	r0, r6
 289 00b2 FFF7FEFF 		bl	CyDmaChSetInitialTd
 290              	.LVL25:
 127:main.c        ****     CyDmaChEnable(DMA_Chan, 1);
 291              		.loc 1 127 0
 292 00b6 0121     		movs	r1, #1
 293 00b8 3046     		mov	r0, r6
 294 00ba FFF7FEFF 		bl	CyDmaChEnable
 295              	.LVL26:
 128:main.c        **** 
 129:main.c        ****     /* Defines for DMA_1 */
 130:main.c        ****     #define DMA_1_BYTES_PER_BURST 1
 131:main.c        ****     #define DMA_1_REQUEST_PER_BURST 1
 132:main.c        ****     #define DMA_1_SRC_BASE (CYDEV_PERIPH_BASE)
 133:main.c        ****     #define DMA_1_DST_BASE (CYDEV_SRAM_BASE)
 134:main.c        **** 
 135:main.c        ****     /* Variable declarations for DMA_1 */
 136:main.c        ****     /* Move these variable declarations to the top of the function */
 137:main.c        ****     uint8 DMA_1_Chan;
 138:main.c        ****     uint8 DMA_1_TD[2];
 139:main.c        **** 
 140:main.c        ****     /* DMA Configuration for DMA_1 */
 141:main.c        ****     DMA_1_Chan = DMA_1_DmaInitialize(DMA_1_BYTES_PER_BURST, DMA_1_REQUEST_PER_BURST, 
 296              		.loc 1 141 0
 297 00be 41F6FF73 		movw	r3, #8191
 298 00c2 4FF48042 		mov	r2, #16384
 299 00c6 0121     		movs	r1, #1
 300 00c8 0846     		mov	r0, r1
 301 00ca FFF7FEFF 		bl	DMA_1_DmaInitialize
 302              	.LVL27:
 303 00ce 0646     		mov	r6, r0
 304              	.LVL28:
 142:main.c        ****     HI16(DMA_1_SRC_BASE), HI16(DMA_1_DST_BASE));
 143:main.c        ****     
 144:main.c        ****     DMA_1_TD[0] = CyDmaTdAllocate();
 305              		.loc 1 144 0
 306 00d0 FFF7FEFF 		bl	CyDmaTdAllocate
 307              	.LVL29:
 308 00d4 0446     		mov	r4, r0
 145:main.c        ****     DMA_1_TD[1] = CyDmaTdAllocate();
 309              		.loc 1 145 0
ARM GAS  C:\Users\ariky\AppData\Local\Temp\ccEDxqgb.s 			page 9


 310 00d6 FFF7FEFF 		bl	CyDmaTdAllocate
 311              	.LVL30:
 312 00da 0546     		mov	r5, r0
 146:main.c        ****     
 147:main.c        ****     CyDmaTdSetConfiguration(DMA_1_TD[0], RAM_LENGTH, DMA_1_TD[1], DMA_1__TD_TERMOUT_EN | CY_DMA_TD_
 313              		.loc 1 147 0
 314 00dc 0623     		movs	r3, #6
 315 00de 0246     		mov	r2, r0
 316 00e0 4021     		movs	r1, #64
 317 00e2 2046     		mov	r0, r4
 318 00e4 FFF7FEFF 		bl	CyDmaTdSetConfiguration
 319              	.LVL31:
 148:main.c        ****     CyDmaTdSetConfiguration(DMA_1_TD[1], RAM_LENGTH, DMA_1_TD[0], DMA_1__TD_TERMOUT_EN | CY_DMA_TD_
 320              		.loc 1 148 0
 321 00e8 0623     		movs	r3, #6
 322 00ea 2246     		mov	r2, r4
 323 00ec 4021     		movs	r1, #64
 324 00ee 2846     		mov	r0, r5
 325 00f0 FFF7FEFF 		bl	CyDmaTdSetConfiguration
 326              	.LVL32:
 149:main.c        ****     
 150:main.c        ****     CyDmaTdSetAddress(DMA_1_TD[0], LO16((uint32)ADC_SAR_1_SAR_WRK0_PTR), LO16((uint32)src2RAM1));
 327              		.loc 1 150 0
 328 00f4 12AA     		add	r2, sp, #72
 329 00f6 92B2     		uxth	r2, r2
 330 00f8 45F6A231 		movw	r1, #23458
 331 00fc 2046     		mov	r0, r4
 332 00fe FFF7FEFF 		bl	CyDmaTdSetAddress
 333              	.LVL33:
 151:main.c        ****     CyDmaTdSetAddress(DMA_1_TD[1], LO16((uint32)ADC_SAR_1_SAR_WRK0_PTR), LO16((uint32)src2RAM2));
 334              		.loc 1 151 0
 335 0102 02AA     		add	r2, sp, #8
 336 0104 92B2     		uxth	r2, r2
 337 0106 45F6A231 		movw	r1, #23458
 338 010a 2846     		mov	r0, r5
 339 010c FFF7FEFF 		bl	CyDmaTdSetAddress
 340              	.LVL34:
 152:main.c        ****     CyDmaChSetInitialTd(DMA_1_Chan, DMA_1_TD[0]);
 341              		.loc 1 152 0
 342 0110 2146     		mov	r1, r4
 343 0112 3046     		mov	r0, r6
 344 0114 FFF7FEFF 		bl	CyDmaChSetInitialTd
 345              	.LVL35:
 153:main.c        ****     CyDmaChEnable(DMA_1_Chan, 1);
 346              		.loc 1 153 0
 347 0118 0121     		movs	r1, #1
 348 011a 3046     		mov	r0, r6
 349 011c FFF7FEFF 		bl	CyDmaChEnable
 350              	.LVL36:
 154:main.c        **** 
 155:main.c        ****     
 156:main.c        ****     /* Start USBFS operation with 5V operation. */
 157:main.c        ****     USBFS_Start(USBFS_DEVICE, USBFS_5V_OPERATION);
 351              		.loc 1 157 0
 352 0120 0121     		movs	r1, #1
 353 0122 0020     		movs	r0, #0
 354 0124 FFF7FEFF 		bl	USBFS_Start
ARM GAS  C:\Users\ariky\AppData\Local\Temp\ccEDxqgb.s 			page 10


 355              	.LVL37:
 356              	.L18:
 158:main.c        **** 
 159:main.c        ****     /* Wait until device is enumerated by host. */
 160:main.c        ****     while (0u == USBFS_GetConfiguration())
 357              		.loc 1 160 0 discriminator 1
 358 0128 FFF7FEFF 		bl	USBFS_GetConfiguration
 359              	.LVL38:
 360 012c 0028     		cmp	r0, #0
 361 012e FBD0     		beq	.L18
 161:main.c        ****     {
 162:main.c        ****     }
 163:main.c        ****     
 164:main.c        ****     /* Enable OUT endpoint to receive data from host. */
 165:main.c        ****     USBFS_EnableOutEP(OUT_EP_NUM);
 362              		.loc 1 165 0
 363 0130 0320     		movs	r0, #3
 364 0132 FFF7FEFF 		bl	USBFS_EnableOutEP
 365              	.LVL39:
 166:main.c        ****     uint8 read_buffer[RD_BUFFER_SIZE] = {0};
 366              		.loc 1 166 0
 367 0136 0023     		movs	r3, #0
 368 0138 ADF80430 		strh	r3, [sp, #4]	@ movhi
 167:main.c        ****     uint8 write_buffer[WR_BUFFER_SIZE] = {0};
 369              		.loc 1 167 0
 370 013c 8DF80030 		strb	r3, [sp]
 371              	.LVL40:
 168:main.c        ****     uint8 readbyteCount = 0u;
 169:main.c        ****     
 170:main.c        ****     uint8 command_reg = 0; // Command register to capture writes from I2C
 171:main.c        **** 
 172:main.c        ****     // Set up slave write data buffer
 173:main.c        ****     I2CS_SlaveInitWriteBuf((uint8 *) write_buffer, WR_BUFFER_SIZE);   
 372              		.loc 1 173 0
 373 0140 0121     		movs	r1, #1
 374 0142 6846     		mov	r0, sp
 375 0144 FFF7FEFF 		bl	I2CS_SlaveInitWriteBuf
 376              	.LVL41:
 174:main.c        ****     // Set up slave read data buffer
 175:main.c        ****     I2CS_SlaveInitReadBuf((uint8 *) read_buffer, RD_BUFFER_SIZE);
 377              		.loc 1 175 0
 378 0148 0221     		movs	r1, #2
 379 014a 01A8     		add	r0, sp, #4
 380 014c FFF7FEFF 		bl	I2CS_SlaveInitReadBuf
 381              	.LVL42:
 176:main.c        ****     // Start I2C slave component
 177:main.c        ****     I2CS_Start();
 382              		.loc 1 177 0
 383 0150 FFF7FEFF 		bl	I2CS_Start
 384              	.LVL43:
 178:main.c        ****     if(I2CS_SlaveStatus() & I2CS_SSTAT_WR_CMPLT)
 385              		.loc 1 178 0
 386 0154 FFF7FEFF 		bl	I2CS_SlaveStatus
 387              	.LVL44:
 388 0158 10F0100F 		tst	r0, #16
 389 015c 0AD0     		beq	.L19
 179:main.c        ****     {
ARM GAS  C:\Users\ariky\AppData\Local\Temp\ccEDxqgb.s 			page 11


 180:main.c        ****         // Copy command into command register
 181:main.c        ****         command_reg = write_buffer[0]; //Pi to PSoC
 390              		.loc 1 181 0
 391 015e 9DF80000 		ldrb	r0, [sp]	@ zero_extendqisi2
 392              	.LVL45:
 182:main.c        ****         //divide the DMA clock to the specified sample rate
 183:main.c        ****         Clock_2_SetDividerValue(command_reg);
 393              		.loc 1 183 0
 394 0162 0138     		subs	r0, r0, #1
 395              	.LVL46:
 396 0164 0121     		movs	r1, #1
 397 0166 80B2     		uxth	r0, r0
 398              	.LVL47:
 399 0168 FFF7FEFF 		bl	Clock_2_SetDividerRegister
 400              	.LVL48:
 184:main.c        ****         //LCD_Position(0u, 10u);
 185:main.c        ****         //LCD_PrintNumber(command_reg);
 186:main.c        ****         // Clear status
 187:main.c        ****         I2CS_SlaveClearWriteStatus();
 401              		.loc 1 187 0
 402 016c FFF7FEFF 		bl	I2CS_SlaveClearWriteStatus
 403              	.LVL49:
 188:main.c        ****         I2CS_SlaveClearWriteBuf();
 404              		.loc 1 188 0
 405 0170 FFF7FEFF 		bl	I2CS_SlaveClearWriteBuf
 406              	.LVL50:
 407              	.L19:
  95:main.c        ****         src1RAM1[i] = 0;
 408              		.loc 1 95 0
 409 0174 0124     		movs	r4, #1
 410              	.LVL51:
 411              	.L32:
 189:main.c        ****         
 190:main.c        ****     } 
 191:main.c        ****     for(;;)
 192:main.c        ****     {
 193:main.c        ****      /* Check if the command register has been written */
 194:main.c        ****   
 195:main.c        ****     
 196:main.c        ****         /* Check if the slave buffer has been read */
 197:main.c        ****      if(I2CS_SlaveStatus() & I2CS_SSTAT_RD_CMPLT)
 412              		.loc 1 197 0
 413 0176 FFF7FEFF 		bl	I2CS_SlaveStatus
 414              	.LVL52:
 415 017a 10F0010F 		tst	r0, #1
 416 017e 2DD0     		beq	.L20
 198:main.c        ****         {
 199:main.c        ****          readbyteCount = I2CS_SlaveGetReadBufSize();
 417              		.loc 1 199 0
 418 0180 FFF7FEFF 		bl	I2CS_SlaveGetReadBufSize
 419              	.LVL53:
 200:main.c        ****          /* If both bytes of the read buffer have been read */
 201:main.c        ****           if(readbyteCount == RD_BUFFER_SIZE) 
 420              		.loc 1 201 0
 421 0184 0228     		cmp	r0, #2
 422 0186 29D1     		bne	.L20
 202:main.c        ****             {
ARM GAS  C:\Users\ariky\AppData\Local\Temp\ccEDxqgb.s 			page 12


 203:main.c        ****              // Clear read status
 204:main.c        ****               I2CS_SlaveClearReadStatus();
 423              		.loc 1 204 0
 424 0188 FFF7FEFF 		bl	I2CS_SlaveClearReadStatus
 425              	.LVL54:
 205:main.c        ****               I2CS_SlaveClearReadBuf();
 426              		.loc 1 205 0
 427 018c FFF7FEFF 		bl	I2CS_SlaveClearReadBuf
 428              	.LVL55:
 206:main.c        **** 
 207:main.c        ****               if (timeFlag){
 429              		.loc 1 207 0
 430 0190 424B     		ldr	r3, .L38+12
 431 0192 1B69     		ldr	r3, [r3, #16]
 432 0194 13B3     		cbz	r3, .L20
 208:main.c        ****                 if (potFlag){
 433              		.loc 1 208 0
 434 0196 7CB1     		cbz	r4, .L21
 435              	.LBB2:
 209:main.c        ****                     AMux_Select(0x0);//switch to pin0.3 to grab 
 436              		.loc 1 209 0
 437 0198 0020     		movs	r0, #0
 438 019a FFF7FEFF 		bl	AMux_Select
 439              	.LVL56:
 210:main.c        ****                     int adc1=ADC_GetResult16();
 440              		.loc 1 210 0
 441 019e FFF7FEFF 		bl	ADC_GetResult16
 442              	.LVL57:
 443 01a2 0346     		mov	r3, r0
 444              	.LVL58:
 211:main.c        ****                     if (adc1<0) adc1=0; 
 445              		.loc 1 211 0
 446 01a4 0028     		cmp	r0, #0
 447 01a6 00DA     		bge	.L22
 448 01a8 0023     		movs	r3, #0
 449              	.L22:
 450              	.LVL59:
 212:main.c        ****                     if (adc1>254) adc1=255;
 451              		.loc 1 212 0
 452 01aa FE2B     		cmp	r3, #254
 453 01ac 00DD     		ble	.L23
 454 01ae FF23     		movs	r3, #255
 455              	.LVL60:
 456              	.L23:
 213:main.c        ****                     read_buffer[0] = adc1;
 457              		.loc 1 213 0
 458 01b0 8DF80430 		strb	r3, [sp, #4]
 459              	.LVL61:
 214:main.c        ****                     potFlag=FALSE;
 460              		.loc 1 214 0
 461 01b4 0024     		movs	r4, #0
 462              	.LBE2:
 463 01b6 0EE0     		b	.L24
 464              	.LVL62:
 465              	.L21:
 466              	.LBB3:
 215:main.c        ****                 }
ARM GAS  C:\Users\ariky\AppData\Local\Temp\ccEDxqgb.s 			page 13


 216:main.c        ****                 else{
 217:main.c        ****                     AMux_Select(0x1);//switch to pin 0.4 to grab value
 467              		.loc 1 217 0
 468 01b8 0120     		movs	r0, #1
 469 01ba FFF7FEFF 		bl	AMux_Select
 470              	.LVL63:
 218:main.c        ****                     int adc2=ADC_GetResult16();
 471              		.loc 1 218 0
 472 01be FFF7FEFF 		bl	ADC_GetResult16
 473              	.LVL64:
 474 01c2 0346     		mov	r3, r0
 475              	.LVL65:
 219:main.c        ****                     if (adc2<0) adc2=0; 
 476              		.loc 1 219 0
 477 01c4 0028     		cmp	r0, #0
 478 01c6 00DA     		bge	.L25
 479 01c8 0023     		movs	r3, #0
 480              	.L25:
 481              	.LVL66:
 220:main.c        ****                     if (adc2>254) adc2=255;
 482              		.loc 1 220 0
 483 01ca FE2B     		cmp	r3, #254
 484 01cc 00DD     		ble	.L26
 485 01ce FF23     		movs	r3, #255
 486              	.LVL67:
 487              	.L26:
 221:main.c        ****                     read_buffer[1] = adc2;
 488              		.loc 1 221 0
 489 01d0 8DF80530 		strb	r3, [sp, #5]
 490              	.LVL68:
 222:main.c        ****                     potFlag=TRUE;
 491              		.loc 1 222 0
 492 01d4 0124     		movs	r4, #1
 493              	.LVL69:
 494              	.L24:
 495              	.LBE3:
 223:main.c        ****                 }
 224:main.c        ****                 timeFlag=FALSE; //reset flag for next isr
 496              		.loc 1 224 0
 497 01d6 0022     		movs	r2, #0
 498 01d8 304B     		ldr	r3, .L38+12
 499 01da 1A61     		str	r2, [r3, #16]
 500              	.L20:
 225:main.c        ****               }
 226:main.c        **** 
 227:main.c        ****            }
 228:main.c        ****         }
 229:main.c        ****         //TRANSMISSION SIDE
 230:main.c        ****         
 231:main.c        ****         /* Trigger DMA to copy data into IN endpoint buffer.
 232:main.c        ****         * After data has been copied, IN endpoint is ready to be read by the
 233:main.c        ****         * host.
 234:main.c        ****         */
 235:main.c        ****         
 236:main.c        ****         if (src1Flag1){ //fill in the desired array based on the ping pong buffer of DMA
 501              		.loc 1 236 0
 502 01dc 2F4B     		ldr	r3, .L38+12
ARM GAS  C:\Users\ariky\AppData\Local\Temp\ccEDxqgb.s 			page 14


 503 01de 1B68     		ldr	r3, [r3]
 504 01e0 63B1     		cbz	r3, .L27
 237:main.c        ****             if (USBFS_IN_BUFFER_EMPTY == USBFS_GetEPState(IN_EP_NUM))
 505              		.loc 1 237 0
 506 01e2 0120     		movs	r0, #1
 507 01e4 FFF7FEFF 		bl	USBFS_GetEPState
 508              	.LVL70:
 509 01e8 0128     		cmp	r0, #1
 510 01ea 16D1     		bne	.L28
 238:main.c        ****             {
 239:main.c        ****                 USBFS_LoadInEP(IN_EP_NUM, src1RAM1, RAM_LENGTH);
 511              		.loc 1 239 0
 512 01ec 4022     		movs	r2, #64
 513 01ee 32A9     		add	r1, sp, #200
 514 01f0 FFF7FEFF 		bl	USBFS_LoadInEP
 515              	.LVL71:
 240:main.c        ****                 src1Flag1=FALSE;
 516              		.loc 1 240 0
 517 01f4 0022     		movs	r2, #0
 518 01f6 294B     		ldr	r3, .L38+12
 519 01f8 1A60     		str	r2, [r3]
 520 01fa 0EE0     		b	.L28
 521              	.L27:
 241:main.c        ****             }
 242:main.c        ****         }
 243:main.c        ****         else if (src1Flag2){
 522              		.loc 1 243 0
 523 01fc 274B     		ldr	r3, .L38+12
 524 01fe 5B68     		ldr	r3, [r3, #4]
 525 0200 5BB1     		cbz	r3, .L28
 244:main.c        ****             if (USBFS_IN_BUFFER_EMPTY == USBFS_GetEPState(IN_EP_NUM))
 526              		.loc 1 244 0
 527 0202 0120     		movs	r0, #1
 528 0204 FFF7FEFF 		bl	USBFS_GetEPState
 529              	.LVL72:
 530 0208 0128     		cmp	r0, #1
 531 020a 06D1     		bne	.L28
 245:main.c        ****             {
 246:main.c        ****                 USBFS_LoadInEP(IN_EP_NUM, src1RAM2, RAM_LENGTH);
 532              		.loc 1 246 0
 533 020c 4022     		movs	r2, #64
 534 020e 22A9     		add	r1, sp, #136
 535 0210 FFF7FEFF 		bl	USBFS_LoadInEP
 536              	.LVL73:
 247:main.c        ****                 src1Flag2=FALSE;
 537              		.loc 1 247 0
 538 0214 0022     		movs	r2, #0
 539 0216 214B     		ldr	r3, .L38+12
 540 0218 5A60     		str	r2, [r3, #4]
 541              	.L28:
 248:main.c        ****             }
 249:main.c        ****         }
 250:main.c        ****         if (src2Flag1){
 542              		.loc 1 250 0
 543 021a 204B     		ldr	r3, .L38+12
 544 021c 9B68     		ldr	r3, [r3, #8]
 545 021e 6BB1     		cbz	r3, .L29
ARM GAS  C:\Users\ariky\AppData\Local\Temp\ccEDxqgb.s 			page 15


 251:main.c        ****             if (USBFS_IN_BUFFER_EMPTY == USBFS_GetEPState(IN2_EP_NUM))
 546              		.loc 1 251 0
 547 0220 0220     		movs	r0, #2
 548 0222 FFF7FEFF 		bl	USBFS_GetEPState
 549              	.LVL74:
 550 0226 0128     		cmp	r0, #1
 551 0228 18D1     		bne	.L30
 252:main.c        ****             {            
 253:main.c        ****                 USBFS_LoadInEP(IN2_EP_NUM, src2RAM1, RAM_LENGTH);
 552              		.loc 1 253 0
 553 022a 4022     		movs	r2, #64
 554 022c 12A9     		add	r1, sp, #72
 555 022e 0220     		movs	r0, #2
 556 0230 FFF7FEFF 		bl	USBFS_LoadInEP
 557              	.LVL75:
 254:main.c        ****                 src2Flag1=FALSE;
 558              		.loc 1 254 0
 559 0234 0022     		movs	r2, #0
 560 0236 194B     		ldr	r3, .L38+12
 561 0238 9A60     		str	r2, [r3, #8]
 562 023a 0FE0     		b	.L30
 563              	.L29:
 255:main.c        ****             }
 256:main.c        **** 
 257:main.c        ****         }
 258:main.c        ****         else if (src2Flag2){
 564              		.loc 1 258 0
 565 023c 174B     		ldr	r3, .L38+12
 566 023e DB68     		ldr	r3, [r3, #12]
 567 0240 63B1     		cbz	r3, .L30
 259:main.c        ****             if (USBFS_IN_BUFFER_EMPTY == USBFS_GetEPState(IN2_EP_NUM))
 568              		.loc 1 259 0
 569 0242 0220     		movs	r0, #2
 570 0244 FFF7FEFF 		bl	USBFS_GetEPState
 571              	.LVL76:
 572 0248 0128     		cmp	r0, #1
 573 024a 07D1     		bne	.L30
 260:main.c        ****             {            
 261:main.c        ****                 USBFS_LoadInEP(IN2_EP_NUM, src2RAM2, RAM_LENGTH);
 574              		.loc 1 261 0
 575 024c 4022     		movs	r2, #64
 576 024e 02A9     		add	r1, sp, #8
 577 0250 0220     		movs	r0, #2
 578 0252 FFF7FEFF 		bl	USBFS_LoadInEP
 579              	.LVL77:
 262:main.c        ****                 src2Flag2=FALSE;
 580              		.loc 1 262 0
 581 0256 0022     		movs	r2, #0
 582 0258 104B     		ldr	r3, .L38+12
 583 025a DA60     		str	r2, [r3, #12]
 584              	.L30:
 263:main.c        ****             }
 264:main.c        **** 
 265:main.c        ****         }
 266:main.c        ****         
 267:main.c        ****         //wait till the Pi recieves the byte
 268:main.c        ****         
ARM GAS  C:\Users\ariky\AppData\Local\Temp\ccEDxqgb.s 			page 16


 269:main.c        ****         /* Check if configuration is changed. */
 270:main.c        ****         if (0u != USBFS_IsConfigurationChanged())
 585              		.loc 1 270 0
 586 025c FFF7FEFF 		bl	USBFS_IsConfigurationChanged
 587              	.LVL78:
 588 0260 28B1     		cbz	r0, .L31
 271:main.c        ****         {
 272:main.c        ****             /* Re-enable endpoint when device is configured. */
 273:main.c        ****             if (0u != USBFS_GetConfiguration())
 589              		.loc 1 273 0
 590 0262 FFF7FEFF 		bl	USBFS_GetConfiguration
 591              	.LVL79:
 592 0266 10B1     		cbz	r0, .L31
 274:main.c        ****             {
 275:main.c        ****                 /* Enable OUT endpoint to receive data from host. */
 276:main.c        ****                 USBFS_EnableOutEP(OUT_EP_NUM);
 593              		.loc 1 276 0
 594 0268 0320     		movs	r0, #3
 595 026a FFF7FEFF 		bl	USBFS_EnableOutEP
 596              	.LVL80:
 597              	.L31:
 277:main.c        ****             }
 278:main.c        ****         }
 279:main.c        ****         LCD_Position(0u, 0u);
 598              		.loc 1 279 0
 599 026e 0021     		movs	r1, #0
 600 0270 0846     		mov	r0, r1
 601 0272 FFF7FEFF 		bl	LCD_Position
 602              	.LVL81:
 280:main.c        ****         //check the destination array make sure it emptied 
 281:main.c        ****         LCD_PrintNumber(read_buffer[0]);
 603              		.loc 1 281 0
 604 0276 9DF80400 		ldrb	r0, [sp, #4]	@ zero_extendqisi2
 605 027a FFF7FEFF 		bl	LCD_PrintU32Number
 606              	.LVL82:
 282:main.c        ****         
 283:main.c        ****         LCD_Position(1u, 0u);
 607              		.loc 1 283 0
 608 027e 0021     		movs	r1, #0
 609 0280 0120     		movs	r0, #1
 610 0282 FFF7FEFF 		bl	LCD_Position
 611              	.LVL83:
 284:main.c        ****         //check the destination array make sure it emptied 
 285:main.c        ****         LCD_PrintNumber(read_buffer[1]);
 612              		.loc 1 285 0
 613 0286 9DF80500 		ldrb	r0, [sp, #5]	@ zero_extendqisi2
 614 028a FFF7FEFF 		bl	LCD_PrintU32Number
 615              	.LVL84:
 286:main.c        ****         
 287:main.c        **** 
 288:main.c        ****         /*
 289:main.c        ****         LCD_Position(0u, 10u);
 290:main.c        ****         //check the destination array make sure it emptied 
 291:main.c        ****         LCD_PrintNumber(src1RAM[0]);
 292:main.c        ****             
 293:main.c        ****         //LCD_Position(1u, 10u);
 294:main.c        ****         //check the source array make sure it emptied 
ARM GAS  C:\Users\ariky\AppData\Local\Temp\ccEDxqgb.s 			page 17


 295:main.c        ****         LCD_PrintNumber(src2RAM[0]);
 296:main.c        ****         */
 297:main.c        ****         
 298:main.c        ****     }
 616              		.loc 1 298 0
 617 028e 72E7     		b	.L32
 618              	.L39:
 619              		.align	2
 620              	.L38:
 621 0290 00000000 		.word	end
 622 0294 00000000 		.word	end1
 623 0298 00000000 		.word	time
 624 029c 00000000 		.word	.LANCHOR1
 625              		.cfi_endproc
 626              	.LFE66:
 627              		.size	main, .-main
 628              		.comm	buffer,64,4
 629              		.global	timeFlag
 630              		.global	src2Flag2
 631              		.global	src2Flag1
 632              		.global	src1Flag2
 633              		.global	src1Flag1
 634              		.global	flag2
 635              		.global	flag1
 636              		.data
 637              		.align	2
 638              		.set	.LANCHOR0,. + 0
 639              		.type	flag1, %object
 640              		.size	flag1, 4
 641              	flag1:
 642 0000 01000000 		.word	1
 643              		.type	flag2, %object
 644              		.size	flag2, 4
 645              	flag2:
 646 0004 01000000 		.word	1
 647              		.bss
 648              		.align	2
 649              		.set	.LANCHOR1,. + 0
 650              		.type	src1Flag1, %object
 651              		.size	src1Flag1, 4
 652              	src1Flag1:
 653 0000 00000000 		.space	4
 654              		.type	src1Flag2, %object
 655              		.size	src1Flag2, 4
 656              	src1Flag2:
 657 0004 00000000 		.space	4
 658              		.type	src2Flag1, %object
 659              		.size	src2Flag1, 4
 660              	src2Flag1:
 661 0008 00000000 		.space	4
 662              		.type	src2Flag2, %object
 663              		.size	src2Flag2, 4
 664              	src2Flag2:
 665 000c 00000000 		.space	4
 666              		.type	timeFlag, %object
 667              		.size	timeFlag, 4
 668              	timeFlag:
ARM GAS  C:\Users\ariky\AppData\Local\Temp\ccEDxqgb.s 			page 18


 669 0010 00000000 		.space	4
 670              		.text
 671              	.Letext0:
 672              		.file 2 "c:\\program files (x86)\\cypress\\psoc creator\\4.2\\psoc creator\\import\\gnu\\arm\\5.4.
 673              		.file 3 "c:\\program files (x86)\\cypress\\psoc creator\\4.2\\psoc creator\\import\\gnu\\arm\\5.4.
 674              		.file 4 "Generated_Source\\PSoC5/cytypes.h"
 675              		.file 5 "Generated_Source\\PSoC5/core_cm3.h"
 676              		.file 6 "Generated_Source\\PSoC5/LCD.h"
 677              		.file 7 "Generated_Source\\PSoC5/Timer.h"
 678              		.file 8 "Generated_Source\\PSoC5/AMux.h"
 679              		.file 9 "Generated_Source\\PSoC5/ADC.h"
 680              		.file 10 "Generated_Source\\PSoC5/ADC_SAR.h"
 681              		.file 11 "Generated_Source\\PSoC5/ADC_SAR_1.h"
 682              		.file 12 "Generated_Source\\PSoC5/isr.h"
 683              		.file 13 "Generated_Source\\PSoC5/isr_1.h"
 684              		.file 14 "Generated_Source\\PSoC5/Onems.h"
 685              		.file 15 "Generated_Source\\PSoC5/DMA_dma.h"
 686              		.file 16 "Generated_Source\\PSoC5/CyDmac.h"
 687              		.file 17 "Generated_Source\\PSoC5/DMA_1_dma.h"
 688              		.file 18 "Generated_Source\\PSoC5/USBFS.h"
 689              		.file 19 "Generated_Source\\PSoC5/I2CS.h"
 690              		.file 20 "Generated_Source\\PSoC5/Clock_2.h"